

Microchip MPLAB XC8 Assembler V2.46 build 20240104201356 
                                                                                               Fri Mar 29 23:01:35 2024

Microchip MPLAB XC8 C Compiler v2.46 (Free license) build 20240104201356 Og1 
     1                           	processor	16F877A
     2                           	pagewidth 120
     3                           	opt	flic
     4                           	psect	idataBANK0,global,class=CODE,delta=2,noexec
     5                           	psect	idataBANK1,global,class=CODE,delta=2,noexec
     6                           	psect	strings,global,class=STRING,delta=2,noexec
     7                           	psect	stringtext,global,reloc=256,class=STRCODE,delta=2,noexec
     8                           	psect	cinit,global,class=CODE,merge=1,delta=2
     9                           	psect	bssCOMMON,global,class=COMMON,space=1,delta=1,noexec
    10                           	psect	bssBANK0,global,class=BANK0,space=1,delta=1,noexec
    11                           	psect	dataBANK0,global,class=BANK0,space=1,delta=1,noexec
    12                           	psect	bssBANK1,global,class=BANK1,space=1,delta=1,noexec
    13                           	psect	dataBANK1,global,class=BANK1,space=1,delta=1,noexec
    14                           	psect	inittext,global,class=CODE,delta=2
    15                           	psect	cstackCOMMON,global,class=COMMON,space=1,delta=1,noexec
    16                           	psect	cstackBANK0,global,class=BANK0,space=1,delta=1,noexec
    17                           	psect	maintext,global,class=CODE,split=1,delta=2
    18                           	psect	text1,local,class=CODE,merge=1,delta=2
    19                           	psect	text2,local,class=CODE,merge=1,delta=2
    20                           	psect	text3,local,class=CODE,merge=1,delta=2
    21                           	psect	text4,local,class=CODE,merge=1,delta=2
    22                           	psect	text5,local,class=CODE,merge=1,delta=2
    23                           	psect	text6,local,class=CODE,merge=1,delta=2,group=1
    24                           	psect	text7,local,class=CODE,merge=1,delta=2,group=1
    25                           	psect	text8,local,class=CODE,merge=1,delta=2,group=1
    26                           	psect	text9,local,class=CODE,merge=1,delta=2,group=1
    27                           	psect	text10,local,class=CODE,merge=1,delta=2,group=1
    28                           	psect	text11,local,class=CODE,merge=1,delta=2,group=1
    29                           	psect	text12,local,class=CODE,merge=1,delta=2,group=1
    30                           	psect	text13,local,class=CODE,merge=1,delta=2,group=1
    31                           	psect	text14,local,class=CODE,merge=1,delta=2,group=1
    32                           	psect	text15,local,class=CODE,merge=1,delta=2,group=1
    33                           	psect	text16,local,class=CODE,merge=1,delta=2
    34                           	psect	text17,local,class=CODE,merge=1,delta=2
    35                           	psect	text18,local,class=CODE,merge=1,delta=2
    36                           	psect	text19,local,class=CODE,merge=1,delta=2
    37                           	psect	text20,local,class=CODE,merge=1,delta=2
    38                           	psect	text21,local,class=CODE,merge=1,delta=2
    39                           	psect	text22,local,class=CODE,merge=1,delta=2
    40                           	psect	text23,local,class=CODE,merge=1,delta=2
    41                           	psect	text24,local,class=CODE,merge=1,delta=2
    42                           	psect	text25,local,class=CODE,merge=1,delta=2
    43                           	psect	text26,local,class=CODE,merge=1,delta=2
    44                           	psect	text27,local,class=CODE,merge=1,delta=2
    45                           	psect	intentry,global,class=CODE,delta=2
    46                           	psect	config,global,abs,ovrld,class=CONFIG,space=4,delta=2,noexec
    47                           	dabs	1,0x7E,2
    48     0000                     
    49                           ; Version 2.20
    50                           ; Generated 12/02/2020 GMT
    51                           ; 
    52                           ; Copyright © 2020, Microchip Technology Inc. and its subsidiaries ("Microchip")
    53                           ; All rights reserved.
    54                           ; 
    55                           ; This software is developed by Microchip Technology Inc. and its subsidiaries ("Microch
      +                          ip").
    56                           ; 
    57                           ; Redistribution and use in source and binary forms, with or without modification, are
    58                           ; permitted provided that the following conditions are met:
    59                           ; 
    60                           ;     1. Redistributions of source code must retain the above copyright notice, this lis
      +                          t of
    61                           ;        conditions and the following disclaimer.
    62                           ; 
    63                           ;     2. Redistributions in binary form must reproduce the above copyright notice, this 
      +                          list
    64                           ;        of conditions and the following disclaimer in the documentation and/or other
    65                           ;        materials provided with the distribution.
    66                           ; 
    67                           ;     3. Microchip's name may not be used to endorse or promote products derived from th
      +                          is
    68                           ;        software without specific prior written permission.
    69                           ; 
    70                           ; THIS SOFTWARE IS PROVIDED BY MICROCHIP "AS IS" AND ANY EXPRESS OR IMPLIED WARRANTIES,
    71                           ; INCLUDING, BUT NOT LIMITED TO, THE IMPLIED WARRANTIES OF MERCHANTABILITY AND FITNESS F
      +                          OR
    72                           ; PURPOSE ARE DISCLAIMED.  IN NO EVENT SHALL MICROCHIP BE LIABLE FOR ANY DIRECT, INDIREC
      +                          T,
    73                           ; INCIDENTAL, SPECIAL, EXEMPLARY, OR CONSEQUENTIAL DAMAGES (INCLUDING BUT NOT LIMITED TO
    74                           ; PROCUREMENT OF SUBSTITUTE GOODS OR SERVICES; LOSS OF USE, DATA OR PROFITS; OR BUSINESS
    75                           ; INTERRUPTION) HOWSOEVER CAUSED AND ON ANY THEORY OF LIABILITY, WHETHER IN CONTRACT, ST
      +                          RICT
    76                           ; LIABILITY, OR TORT (INCLUDING NEGLIGENCE OR OTHERWISE) ARISING IN ANY WAY OUT OF THE U
      +                          SE OF
    77                           ; THIS SOFTWARE, EVEN IF ADVISED OF THE POSSIBILITY OF SUCH DAMAGE.
    78                           ; 
    79                           ; 
    80                           ; Code-generator required, PIC16F877A Definitions
    81                           ; 
    82                           ; SFR Addresses
    83     0000                     	;# 
    84     0001                     	;# 
    85     0002                     	;# 
    86     0003                     	;# 
    87     0004                     	;# 
    88     0005                     	;# 
    89     0006                     	;# 
    90     0007                     	;# 
    91     0008                     	;# 
    92     0009                     	;# 
    93     000A                     	;# 
    94     000B                     	;# 
    95     000C                     	;# 
    96     000D                     	;# 
    97     000E                     	;# 
    98     000E                     	;# 
    99     000F                     	;# 
   100     0010                     	;# 
   101     0011                     	;# 
   102     0012                     	;# 
   103     0013                     	;# 
   104     0014                     	;# 
   105     0015                     	;# 
   106     0015                     	;# 
   107     0016                     	;# 
   108     0017                     	;# 
   109     0018                     	;# 
   110     0019                     	;# 
   111     001A                     	;# 
   112     001B                     	;# 
   113     001B                     	;# 
   114     001C                     	;# 
   115     001D                     	;# 
   116     001E                     	;# 
   117     001F                     	;# 
   118     0081                     	;# 
   119     0085                     	;# 
   120     0086                     	;# 
   121     0087                     	;# 
   122     0088                     	;# 
   123     0089                     	;# 
   124     008C                     	;# 
   125     008D                     	;# 
   126     008E                     	;# 
   127     0091                     	;# 
   128     0092                     	;# 
   129     0093                     	;# 
   130     0094                     	;# 
   131     0098                     	;# 
   132     0099                     	;# 
   133     009C                     	;# 
   134     009D                     	;# 
   135     009E                     	;# 
   136     009F                     	;# 
   137     010C                     	;# 
   138     010D                     	;# 
   139     010E                     	;# 
   140     010F                     	;# 
   141     018C                     	;# 
   142     018D                     	;# 
   143     0000                     	;# 
   144     0001                     	;# 
   145     0002                     	;# 
   146     0003                     	;# 
   147     0004                     	;# 
   148     0005                     	;# 
   149     0006                     	;# 
   150     0007                     	;# 
   151     0008                     	;# 
   152     0009                     	;# 
   153     000A                     	;# 
   154     000B                     	;# 
   155     000C                     	;# 
   156     000D                     	;# 
   157     000E                     	;# 
   158     000E                     	;# 
   159     000F                     	;# 
   160     0010                     	;# 
   161     0011                     	;# 
   162     0012                     	;# 
   163     0013                     	;# 
   164     0014                     	;# 
   165     0015                     	;# 
   166     0015                     	;# 
   167     0016                     	;# 
   168     0017                     	;# 
   169     0018                     	;# 
   170     0019                     	;# 
   171     001A                     	;# 
   172     001B                     	;# 
   173     001B                     	;# 
   174     001C                     	;# 
   175     001D                     	;# 
   176     001E                     	;# 
   177     001F                     	;# 
   178     0081                     	;# 
   179     0085                     	;# 
   180     0086                     	;# 
   181     0087                     	;# 
   182     0088                     	;# 
   183     0089                     	;# 
   184     008C                     	;# 
   185     008D                     	;# 
   186     008E                     	;# 
   187     0091                     	;# 
   188     0092                     	;# 
   189     0093                     	;# 
   190     0094                     	;# 
   191     0098                     	;# 
   192     0099                     	;# 
   193     009C                     	;# 
   194     009D                     	;# 
   195     009E                     	;# 
   196     009F                     	;# 
   197     010C                     	;# 
   198     010D                     	;# 
   199     010E                     	;# 
   200     010F                     	;# 
   201     018C                     	;# 
   202     018D                     	;# 
   203     0000                     	;# 
   204     0001                     	;# 
   205     0002                     	;# 
   206     0003                     	;# 
   207     0004                     	;# 
   208     0005                     	;# 
   209     0006                     	;# 
   210     0007                     	;# 
   211     0008                     	;# 
   212     0009                     	;# 
   213     000A                     	;# 
   214     000B                     	;# 
   215     000C                     	;# 
   216     000D                     	;# 
   217     000E                     	;# 
   218     000E                     	;# 
   219     000F                     	;# 
   220     0010                     	;# 
   221     0011                     	;# 
   222     0012                     	;# 
   223     0013                     	;# 
   224     0014                     	;# 
   225     0015                     	;# 
   226     0015                     	;# 
   227     0016                     	;# 
   228     0017                     	;# 
   229     0018                     	;# 
   230     0019                     	;# 
   231     001A                     	;# 
   232     001B                     	;# 
   233     001B                     	;# 
   234     001C                     	;# 
   235     001D                     	;# 
   236     001E                     	;# 
   237     001F                     	;# 
   238     0081                     	;# 
   239     0085                     	;# 
   240     0086                     	;# 
   241     0087                     	;# 
   242     0088                     	;# 
   243     0089                     	;# 
   244     008C                     	;# 
   245     008D                     	;# 
   246     008E                     	;# 
   247     0091                     	;# 
   248     0092                     	;# 
   249     0093                     	;# 
   250     0094                     	;# 
   251     0098                     	;# 
   252     0099                     	;# 
   253     009C                     	;# 
   254     009D                     	;# 
   255     009E                     	;# 
   256     009F                     	;# 
   257     010C                     	;# 
   258     010D                     	;# 
   259     010E                     	;# 
   260     010F                     	;# 
   261     018C                     	;# 
   262     018D                     	;# 
   263     0000                     	;# 
   264     0001                     	;# 
   265     0002                     	;# 
   266     0003                     	;# 
   267     0004                     	;# 
   268     0005                     	;# 
   269     0006                     	;# 
   270     0007                     	;# 
   271     0008                     	;# 
   272     0009                     	;# 
   273     000A                     	;# 
   274     000B                     	;# 
   275     000C                     	;# 
   276     000D                     	;# 
   277     000E                     	;# 
   278     000E                     	;# 
   279     000F                     	;# 
   280     0010                     	;# 
   281     0011                     	;# 
   282     0012                     	;# 
   283     0013                     	;# 
   284     0014                     	;# 
   285     0015                     	;# 
   286     0015                     	;# 
   287     0016                     	;# 
   288     0017                     	;# 
   289     0018                     	;# 
   290     0019                     	;# 
   291     001A                     	;# 
   292     001B                     	;# 
   293     001B                     	;# 
   294     001C                     	;# 
   295     001D                     	;# 
   296     001E                     	;# 
   297     001F                     	;# 
   298     0081                     	;# 
   299     0085                     	;# 
   300     0086                     	;# 
   301     0087                     	;# 
   302     0088                     	;# 
   303     0089                     	;# 
   304     008C                     	;# 
   305     008D                     	;# 
   306     008E                     	;# 
   307     0091                     	;# 
   308     0092                     	;# 
   309     0093                     	;# 
   310     0094                     	;# 
   311     0098                     	;# 
   312     0099                     	;# 
   313     009C                     	;# 
   314     009D                     	;# 
   315     009E                     	;# 
   316     009F                     	;# 
   317     010C                     	;# 
   318     010D                     	;# 
   319     010E                     	;# 
   320     010F                     	;# 
   321     018C                     	;# 
   322     018D                     	;# 
   323     0000                     	;# 
   324     0001                     	;# 
   325     0002                     	;# 
   326     0003                     	;# 
   327     0004                     	;# 
   328     0005                     	;# 
   329     0006                     	;# 
   330     0007                     	;# 
   331     0008                     	;# 
   332     0009                     	;# 
   333     000A                     	;# 
   334     000B                     	;# 
   335     000C                     	;# 
   336     000D                     	;# 
   337     000E                     	;# 
   338     000E                     	;# 
   339     000F                     	;# 
   340     0010                     	;# 
   341     0011                     	;# 
   342     0012                     	;# 
   343     0013                     	;# 
   344     0014                     	;# 
   345     0015                     	;# 
   346     0015                     	;# 
   347     0016                     	;# 
   348     0017                     	;# 
   349     0018                     	;# 
   350     0019                     	;# 
   351     001A                     	;# 
   352     001B                     	;# 
   353     001B                     	;# 
   354     001C                     	;# 
   355     001D                     	;# 
   356     001E                     	;# 
   357     001F                     	;# 
   358     0081                     	;# 
   359     0085                     	;# 
   360     0086                     	;# 
   361     0087                     	;# 
   362     0088                     	;# 
   363     0089                     	;# 
   364     008C                     	;# 
   365     008D                     	;# 
   366     008E                     	;# 
   367     0091                     	;# 
   368     0092                     	;# 
   369     0093                     	;# 
   370     0094                     	;# 
   371     0098                     	;# 
   372     0099                     	;# 
   373     009C                     	;# 
   374     009D                     	;# 
   375     009E                     	;# 
   376     009F                     	;# 
   377     010C                     	;# 
   378     010D                     	;# 
   379     010E                     	;# 
   380     010F                     	;# 
   381     018C                     	;# 
   382     018D                     	;# 
   383     0000                     	;# 
   384     0001                     	;# 
   385     0002                     	;# 
   386     0003                     	;# 
   387     0004                     	;# 
   388     0005                     	;# 
   389     0006                     	;# 
   390     0007                     	;# 
   391     0008                     	;# 
   392     0009                     	;# 
   393     000A                     	;# 
   394     000B                     	;# 
   395     000C                     	;# 
   396     000D                     	;# 
   397     000E                     	;# 
   398     000E                     	;# 
   399     000F                     	;# 
   400     0010                     	;# 
   401     0011                     	;# 
   402     0012                     	;# 
   403     0013                     	;# 
   404     0014                     	;# 
   405     0015                     	;# 
   406     0015                     	;# 
   407     0016                     	;# 
   408     0017                     	;# 
   409     0018                     	;# 
   410     0019                     	;# 
   411     001A                     	;# 
   412     001B                     	;# 
   413     001B                     	;# 
   414     001C                     	;# 
   415     001D                     	;# 
   416     001E                     	;# 
   417     001F                     	;# 
   418     0081                     	;# 
   419     0085                     	;# 
   420     0086                     	;# 
   421     0087                     	;# 
   422     0088                     	;# 
   423     0089                     	;# 
   424     008C                     	;# 
   425     008D                     	;# 
   426     008E                     	;# 
   427     0091                     	;# 
   428     0092                     	;# 
   429     0093                     	;# 
   430     0094                     	;# 
   431     0098                     	;# 
   432     0099                     	;# 
   433     009C                     	;# 
   434     009D                     	;# 
   435     009E                     	;# 
   436     009F                     	;# 
   437     010C                     	;# 
   438     010D                     	;# 
   439     010E                     	;# 
   440     010F                     	;# 
   441     018C                     	;# 
   442     018D                     	;# 
   443                           
   444                           	psect	idataBANK0
   445     07FD                     __pidataBANK0:
   446                           
   447                           ;initializer for read_digital_keypad@once
   448     07FD  3401               	retlw	1
   449                           
   450                           ;initializer for _reset_mode
   451     07FE  3410               	retlw	16
   452                           
   453                           ;initializer for _operation_mode
   454     07FF  3401               	retlw	1
   455                           
   456                           	psect	idataBANK1
   457     15A6                     __pidataBANK1:
   458                           
   459                           ;initializer for _washing_prog
   460     15A6  345D               	retlw	low (STR_1| (0+32768))
   461     15A7  3491               	retlw	high (STR_1| (0+32768))
   462     15A8  3463               	retlw	low (STR_2| (0+32768))
   463     15A9  3491               	retlw	high (STR_2| (0+32768))
   464     15AA  34E6               	retlw	low (STR_3| (0+32768))
   465     15AB  3490               	retlw	high (STR_3| (0+32768))
   466     15AC  343E               	retlw	low (STR_4| (0+32768))
   467     15AD  3491               	retlw	high (STR_4| (0+32768))
   468     15AE  34DC               	retlw	low (STR_5| (0+32768))
   469     15AF  3490               	retlw	high (STR_5| (0+32768))
   470     15B0  34BD               	retlw	low (STR_6| (0+32768))
   471     15B1  3490               	retlw	high (STR_6| (0+32768))
   472     15B2  340E               	retlw	low (STR_7| (0+32768))
   473     15B3  3491               	retlw	high (STR_7| (0+32768))
   474     15B4  34F0               	retlw	low (STR_8| (0+32768))
   475     15B5  3490               	retlw	high (STR_8| (0+32768))
   476     15B6  3404               	retlw	low (STR_9| (0+32768))
   477     15B7  3491               	retlw	high (STR_9| (0+32768))
   478     15B8  3417               	retlw	low (STR_10| (0+32768))
   479     15B9  3491               	retlw	high (STR_10| (0+32768))
   480     15BA  34FA               	retlw	low (STR_11| (0+32768))
   481     15BB  3490               	retlw	high (STR_11| (0+32768))
   482     15BC  34B2               	retlw	low (STR_12| (0+32768))
   483     15BD  3490               	retlw	high (STR_12| (0+32768))
   484                           
   485                           ;initializer for _water_level_option
   486     15BE  346E               	retlw	low (STR_13| (0+32768))
   487     15BF  3491               	retlw	high (STR_13| (0+32768))
   488     15C0  3473               	retlw	low (STR_14| (0+32768))
   489     15C1  3491               	retlw	high (STR_14| (0+32768))
   490     15C2  3437               	retlw	low (STR_15| (0+32768))
   491     15C3  3491               	retlw	high (STR_15| (0+32768))
   492     15C4  3469               	retlw	low (STR_16| (0+32768))
   493     15C5  3491               	retlw	high (STR_16| (0+32768))
   494     15C6  3477               	retlw	low (STR_17| (0+32768))
   495     15C7  3491               	retlw	high (STR_17| (0+32768))
   496     0006                     _PORTB	set	6
   497     0008                     _PORTD	set	8
   498     0061                     _TMR2IF	set	97
   499     0049                     _RE1	set	73
   500     004A                     _RE2	set	74
   501     0030                     _RB0	set	48
   502     003A                     _RC2	set	58
   503     0092                     _TMR2ON	set	146
   504     005F                     _GIE	set	95
   505     005E                     _PEIE	set	94
   506     0039                     _RC1	set	57
   507     0092                     _PR2	set	146
   508     0086                     _TRISB	set	134
   509     0088                     _TRISD	set	136
   510     0461                     _TMR2IE	set	1121
   511     0449                     _TRISE1	set	1097
   512     044A                     _TRISE2	set	1098
   513     0439                     _TRISC1	set	1081
   514     043A                     _TRISC2	set	1082
   515                           
   516                           	psect	strings
   517     117B                     __pstrings:
   518     117B                     stringtab:
   519     117B                     __stringtab:
   520                           
   521                           ;	String table - string pointers are 2 bytes each
   522     117B  1BFF               	btfsc	btemp+1,7
   523     117C  2985               	ljmp	stringcode
   524     117D  1383               	bcf	3,7
   525     117E  187F               	btfsc	btemp+1,0
   526     117F  1783               	bsf	3,7
   527     1180  0800               	movf	0,w
   528     1181  0A84               	incf	4,f
   529     1182  1903               	skipnz
   530     1183  0AFF               	incf	btemp+1,f
   531     1184  0008               	return
   532     1185                     stringcode:
   533     1185  087F               	movf	btemp+1,w
   534     1186  397F               	andlw	127
   535     1187  008A               	movwf	10
   536     1188  0804               	movf	4,w
   537     1189  0A84               	incf	4,f
   538     118A  1903               	skipnz
   539     118B  0AFF               	incf	btemp+1,f
   540     118C  0082               	movwf	2
   541     118D                     __stringbase:
   542     118D                     __end_of__stringtab:
   543                           
   544                           	psect	stringtext
   545     1000                     __pstringtext:
   546     1000                     STR_33:
   547     1000  3435               	retlw	53	;'5'
   548     1001  342D               	retlw	45	;'-'
   549     1002  3453               	retlw	83	;'S'
   550     1003  3454               	retlw	84	;'T'
   551     1004  3441               	retlw	65	;'A'
   552     1005  3452               	retlw	82	;'R'
   553     1006  3454               	retlw	84	;'T'
   554     1007  3420               	retlw	32	;' '
   555     1008  3436               	retlw	54	;'6'
   556     1009  342D               	retlw	45	;'-'
   557     100A  3450               	retlw	80	;'P'
   558     100B  3441               	retlw	65	;'A'
   559     100C  3455               	retlw	85	;'U'
   560     100D  3453               	retlw	83	;'S'
   561     100E  3445               	retlw	69	;'E'
   562     100F  3420               	retlw	32	;' '
   563     1010  3400               	retlw	0
   564     1011                     STR_20:
   565     1011  3457               	retlw	87	;'W'
   566     1012  3461               	retlw	97	;'a'
   567     1013  3473               	retlw	115	;'s'
   568     1014  3468               	retlw	104	;'h'
   569     1015  3469               	retlw	105	;'i'
   570     1016  346E               	retlw	110	;'n'
   571     1017  3467               	retlw	103	;'g'
   572     1018  3420               	retlw	32	;' '
   573     1019  344D               	retlw	77	;'M'
   574     101A  3461               	retlw	97	;'a'
   575     101B  3463               	retlw	99	;'c'
   576     101C  3468               	retlw	104	;'h'
   577     101D  3469               	retlw	105	;'i'
   578     101E  346E               	retlw	110	;'n'
   579     101F  3465               	retlw	101	;'e'
   580     1020  3400               	retlw	0
   581     1021                     STR_26:
   582     1021  3477               	retlw	119	;'w'
   583     1022  3461               	retlw	97	;'a'
   584     1023  3473               	retlw	115	;'s'
   585     1024  3468               	retlw	104	;'h'
   586     1025  3469               	retlw	105	;'i'
   587     1026  346E               	retlw	110	;'n'
   588     1027  3467               	retlw	103	;'g'
   589     1028  345F               	retlw	95	;'_'
   590     1029  3470               	retlw	112	;'p'
   591     102A  3472               	retlw	114	;'r'
   592     102B  346F               	retlw	111	;'o'
   593     102C  3467               	retlw	103	;'g'
   594     102D  3472               	retlw	114	;'r'
   595     102E  3461               	retlw	97	;'a'
   596     102F  346D               	retlw	109	;'m'
   597     1030  3400               	retlw	0
   598     1031                     STR_41:
   599     1031  3470               	retlw	112	;'p'
   600     1032  3472               	retlw	114	;'r'
   601     1033  346F               	retlw	111	;'o'
   602     1034  3467               	retlw	103	;'g'
   603     1035  342E               	retlw	46	;'.'
   604     1036  3463               	retlw	99	;'c'
   605     1037  346F               	retlw	111	;'o'
   606     1038  346D               	retlw	109	;'m'
   607     1039  3470               	retlw	112	;'p'
   608     103A  346C               	retlw	108	;'l'
   609     103B  3465               	retlw	101	;'e'
   610     103C  3474               	retlw	116	;'t'
   611     103D  3465               	retlw	101	;'e'
   612     103E  3464               	retlw	100	;'d'
   613     103F  3400               	retlw	0
   614     1040                     STR_42:
   615     1040  3472               	retlw	114	;'r'
   616     1041  3465               	retlw	101	;'e'
   617     1042  346D               	retlw	109	;'m'
   618     1043  346F               	retlw	111	;'o'
   619     1044  3476               	retlw	118	;'v'
   620     1045  3465               	retlw	101	;'e'
   621     1046  3420               	retlw	32	;' '
   622     1047  3463               	retlw	99	;'c'
   623     1048  346C               	retlw	108	;'l'
   624     1049  346F               	retlw	111	;'o'
   625     104A  3474               	retlw	116	;'t'
   626     104B  3468               	retlw	104	;'h'
   627     104C  3465               	retlw	101	;'e'
   628     104D  3473               	retlw	115	;'s'
   629     104E  3400               	retlw	0
   630     104F                     STR_18:
   631     104F  3470               	retlw	112	;'p'
   632     1050  3472               	retlw	114	;'r'
   633     1051  3465               	retlw	101	;'e'
   634     1052  3473               	retlw	115	;'s'
   635     1053  3473               	retlw	115	;'s'
   636     1054  3420               	retlw	32	;' '
   637     1055  344B               	retlw	75	;'K'
   638     1056  3465               	retlw	101	;'e'
   639     1057  3479               	retlw	121	;'y'
   640     1058  3435               	retlw	53	;'5'
   641     1059  3420               	retlw	32	;' '
   642     105A  3454               	retlw	84	;'T'
   643     105B  346F               	retlw	111	;'o'
   644     105C  3400               	retlw	0
   645     105D                     STR_27:
   646     105D  3457               	retlw	87	;'W'
   647     105E  3461               	retlw	97	;'a'
   648     105F  3474               	retlw	116	;'t'
   649     1060  3465               	retlw	101	;'e'
   650     1061  3472               	retlw	114	;'r'
   651     1062  3420               	retlw	32	;' '
   652     1063  346C               	retlw	108	;'l'
   653     1064  3465               	retlw	101	;'e'
   654     1065  3476               	retlw	118	;'v'
   655     1066  3465               	retlw	101	;'e'
   656     1067  346C               	retlw	108	;'l'
   657     1068  343A               	retlw	58	;':'
   658     1069  3400               	retlw	0
   659     106A                     STR_44:
   660     106A  3470               	retlw	112	;'p'
   661     106B  346C               	retlw	108	;'l'
   662     106C  3465               	retlw	101	;'e'
   663     106D  3461               	retlw	97	;'a'
   664     106E  3473               	retlw	115	;'s'
   665     106F  3465               	retlw	101	;'e'
   666     1070  3420               	retlw	32	;' '
   667     1071  3463               	retlw	99	;'c'
   668     1072  346C               	retlw	108	;'l'
   669     1073  346F               	retlw	111	;'o'
   670     1074  3473               	retlw	115	;'s'
   671     1075  3465               	retlw	101	;'e'
   672     1076  3400               	retlw	0
   673     1077                     STR_21:
   674     1077  3450               	retlw	80	;'P'
   675     1078  3472               	retlw	114	;'r'
   676     1079  3465               	retlw	101	;'e'
   677     107A  3473               	retlw	115	;'s'
   678     107B  3473               	retlw	115	;'s'
   679     107C  3420               	retlw	32	;' '
   680     107D  3453               	retlw	83	;'S'
   681     107E  3477               	retlw	119	;'w'
   682     107F  3469               	retlw	105	;'i'
   683     1080  3474               	retlw	116	;'t'
   684     1081  3463               	retlw	99	;'c'
   685     1082  3468               	retlw	104	;'h'
   686     1083  3400               	retlw	0
   687     1084                     STR_24:
   688     1084  3450               	retlw	80	;'P'
   689     1085  346F               	retlw	111	;'o'
   690     1086  3477               	retlw	119	;'w'
   691     1087  3465               	retlw	101	;'e'
   692     1088  3472               	retlw	114	;'r'
   693     1089  3469               	retlw	105	;'i'
   694     108A  346E               	retlw	110	;'n'
   695     108B  3467               	retlw	103	;'g'
   696     108C  3420               	retlw	32	;' '
   697     108D  344F               	retlw	79	;'O'
   698     108E  346E               	retlw	110	;'n'
   699     108F  3400               	retlw	0
   700     1090                     STR_43:
   701     1090  3464               	retlw	100	;'d'
   702     1091  346F               	retlw	111	;'o'
   703     1092  346F               	retlw	111	;'o'
   704     1093  3472               	retlw	114	;'r'
   705     1094  3420               	retlw	32	;' '
   706     1095  343A               	retlw	58	;':'
   707     1096  3420               	retlw	32	;' '
   708     1097  346F               	retlw	111	;'o'
   709     1098  3470               	retlw	112	;'p'
   710     1099  3465               	retlw	101	;'e'
   711     109A  346E               	retlw	110	;'n'
   712     109B  3400               	retlw	0
   713     109C                     STR_31:
   714     109C  3446               	retlw	70	;'F'
   715     109D  3475               	retlw	117	;'u'
   716     109E  346E               	retlw	110	;'n'
   717     109F  3463               	retlw	99	;'c'
   718     10A0  3474               	retlw	116	;'t'
   719     10A1  3469               	retlw	105	;'i'
   720     10A2  346F               	retlw	111	;'o'
   721     10A3  346E               	retlw	110	;'n'
   722     10A4  342D               	retlw	45	;'-'
   723     10A5  3420               	retlw	32	;' '
   724     10A6  3400               	retlw	0
   725     10A7                     STR_22:
   726     10A7  3453               	retlw	83	;'S'
   727     10A8  3457               	retlw	87	;'W'
   728     10A9  3435               	retlw	53	;'5'
   729     10AA  343A               	retlw	58	;':'
   730     10AB  3420               	retlw	32	;' '
   731     10AC  3453               	retlw	83	;'S'
   732     10AD  3454               	retlw	84	;'T'
   733     10AE  3441               	retlw	65	;'A'
   734     10AF  3452               	retlw	82	;'R'
   735     10B0  3454               	retlw	84	;'T'
   736     10B1  3400               	retlw	0
   737     10B2                     STR_12:
   738     10B2  3441               	retlw	65	;'A'
   739     10B3  3471               	retlw	113	;'q'
   740     10B4  3475               	retlw	117	;'u'
   741     10B5  3461               	retlw	97	;'a'
   742     10B6  3420               	retlw	32	;' '
   743     10B7  3473               	retlw	115	;'s'
   744     10B8  3474               	retlw	116	;'t'
   745     10B9  346F               	retlw	111	;'o'
   746     10BA  3472               	retlw	114	;'r'
   747     10BB  3465               	retlw	101	;'e'
   748     10BC  3400               	retlw	0
   749     10BD                     STR_6:
   750     10BD  3445               	retlw	69	;'E'
   751     10BE  3463               	retlw	99	;'c'
   752     10BF  346F               	retlw	111	;'o'
   753     10C0  3463               	retlw	99	;'c'
   754     10C1  346F               	retlw	111	;'o'
   755     10C2  3474               	retlw	116	;'t'
   756     10C3  3474               	retlw	116	;'t'
   757     10C4  346F               	retlw	111	;'o'
   758     10C5  346E               	retlw	110	;'n'
   759     10C6  3473               	retlw	115	;'s'
   760     10C7  3400               	retlw	0
   761     10C8                     STR_19:
   762     10C8  3450               	retlw	80	;'P'
   763     10C9  346F               	retlw	111	;'o'
   764     10CA  3477               	retlw	119	;'w'
   765     10CB  3465               	retlw	101	;'e'
   766     10CC  3472               	retlw	114	;'r'
   767     10CD  3420               	retlw	32	;' '
   768     10CE  344F               	retlw	79	;'O'
   769     10CF  344E               	retlw	78	;'N'
   770     10D0  3420               	retlw	32	;' '
   771     10D1  3400               	retlw	0
   772     10D2                     STR_23:
   773     10D2  3453               	retlw	83	;'S'
   774     10D3  3457               	retlw	87	;'W'
   775     10D4  3436               	retlw	54	;'6'
   776     10D5  343A               	retlw	58	;':'
   777     10D6  3420               	retlw	32	;' '
   778     10D7  3453               	retlw	83	;'S'
   779     10D8  3454               	retlw	84	;'T'
   780     10D9  344F               	retlw	79	;'O'
   781     10DA  3450               	retlw	80	;'P'
   782     10DB  3400               	retlw	0
   783     10DC                     STR_5:
   784     10DC  3453               	retlw	83	;'S'
   785     10DD  3474               	retlw	116	;'t'
   786     10DE  3461               	retlw	97	;'a'
   787     10DF  3469               	retlw	105	;'i'
   788     10E0  346E               	retlw	110	;'n'
   789     10E1  3477               	retlw	119	;'w'
   790     10E2  3461               	retlw	97	;'a'
   791     10E3  3473               	retlw	115	;'s'
   792     10E4  3468               	retlw	104	;'h'
   793     10E5  3400               	retlw	0
   794     10E6                     STR_3:
   795     10E6  3444               	retlw	68	;'D'
   796     10E7  3465               	retlw	101	;'e'
   797     10E8  346C               	retlw	108	;'l'
   798     10E9  3469               	retlw	105	;'i'
   799     10EA  3463               	retlw	99	;'c'
   800     10EB  3461               	retlw	97	;'a'
   801     10EC  3474               	retlw	116	;'t'
   802     10ED  3465               	retlw	101	;'e'
   803     10EE  3473               	retlw	115	;'s'
   804     10EF  3400               	retlw	0
   805     10F0                     STR_8:
   806     10F0  3442               	retlw	66	;'B'
   807     10F1  3465               	retlw	101	;'e'
   808     10F2  3464               	retlw	100	;'d'
   809     10F3  3473               	retlw	115	;'s'
   810     10F4  3468               	retlw	104	;'h'
   811     10F5  3465               	retlw	101	;'e'
   812     10F6  3465               	retlw	101	;'e'
   813     10F7  3474               	retlw	116	;'t'
   814     10F8  3473               	retlw	115	;'s'
   815     10F9  3400               	retlw	0
   816     10FA                     STR_11:
   817     10FA  3457               	retlw	87	;'W'
   818     10FB  3461               	retlw	97	;'a'
   819     10FC  3473               	retlw	115	;'s'
   820     10FD  3468               	retlw	104	;'h'
   821     10FE  3420               	retlw	32	;' '
   822     10FF  346F               	retlw	111	;'o'
   823     1100  346E               	retlw	110	;'n'
   824     1101  346C               	retlw	108	;'l'
   825     1102  3479               	retlw	121	;'y'
   826     1103  3400               	retlw	0
   827     1104                     STR_9:
   828     1104  3452               	retlw	82	;'R'
   829     1105  3469               	retlw	105	;'i'
   830     1106  346E               	retlw	110	;'n'
   831     1107  3473               	retlw	115	;'s'
   832     1108  3465               	retlw	101	;'e'
   833     1109  342B               	retlw	43	;'+'
   834     110A  3464               	retlw	100	;'d'
   835     110B  3472               	retlw	114	;'r'
   836     110C  3479               	retlw	121	;'y'
   837     110D  3400               	retlw	0
   838     110E                     STR_7:
   839     110E  3457               	retlw	87	;'W'
   840     110F  346F               	retlw	111	;'o'
   841     1110  346F               	retlw	111	;'o'
   842     1111  346C               	retlw	108	;'l'
   843     1112  346C               	retlw	108	;'l'
   844     1113  3465               	retlw	101	;'e'
   845     1114  346E               	retlw	110	;'n'
   846     1115  3473               	retlw	115	;'s'
   847     1116  3400               	retlw	0
   848     1117                     STR_10:
   849     1117  3444               	retlw	68	;'D'
   850     1118  3472               	retlw	114	;'r'
   851     1119  3479               	retlw	121	;'y'
   852     111A  3420               	retlw	32	;' '
   853     111B  346F               	retlw	111	;'o'
   854     111C  346E               	retlw	110	;'n'
   855     111D  346C               	retlw	108	;'l'
   856     111E  3479               	retlw	121	;'y'
   857     111F  3400               	retlw	0
   858     1120                     STR_29:
   859     1120  3454               	retlw	84	;'T'
   860     1121  3469               	retlw	105	;'i'
   861     1122  346D               	retlw	109	;'m'
   862     1123  3465               	retlw	101	;'e'
   863     1124  3420               	retlw	32	;' '
   864     1125  343A               	retlw	58	;':'
   865     1126  3420               	retlw	32	;' '
   866     1127  3400               	retlw	0
   867     1128                     STR_30:
   868     1128  3428               	retlw	40	;'('
   869     1129  344D               	retlw	77	;'M'
   870     112A  344D               	retlw	77	;'M'
   871     112B  343A               	retlw	58	;':'
   872     112C  3453               	retlw	83	;'S'
   873     112D  3453               	retlw	83	;'S'
   874     112E  3429               	retlw	41	;')'
   875     112F  3400               	retlw	0
   876     1130                     STR_32:
   877     1130  3454               	retlw	84	;'T'
   878     1131  3449               	retlw	73	;'I'
   879     1132  344D               	retlw	77	;'M'
   880     1133  3445               	retlw	69	;'E'
   881     1134  3420               	retlw	32	;' '
   882     1135  343A               	retlw	58	;':'
   883     1136  3400               	retlw	0
   884     1137                     STR_15:
   885     1137  344D               	retlw	77	;'M'
   886     1138  3465               	retlw	101	;'e'
   887     1139  3464               	retlw	100	;'d'
   888     113A  3469               	retlw	105	;'i'
   889     113B  3475               	retlw	117	;'u'
   890     113C  346D               	retlw	109	;'m'
   891     113D  3400               	retlw	0
   892     113E                     STR_4:
   893     113E  3457               	retlw	87	;'W'
   894     113F  3468               	retlw	104	;'h'
   895     1140  3469               	retlw	105	;'i'
   896     1141  3474               	retlw	116	;'t'
   897     1142  3465               	retlw	101	;'e'
   898     1143  3473               	retlw	115	;'s'
   899     1144  3400               	retlw	0
   900     1145                     STR_34:
   901     1145  3457               	retlw	87	;'W'
   902     1146  3461               	retlw	97	;'a'
   903     1147  3473               	retlw	115	;'s'
   904     1148  3468               	retlw	104	;'h'
   905     1149  3420               	retlw	32	;' '
   906     114A  3400               	retlw	0
   907     114B                     STR_36:
   908     114B  3453               	retlw	83	;'S'
   909     114C  3470               	retlw	112	;'p'
   910     114D  3469               	retlw	105	;'i'
   911     114E  346E               	retlw	110	;'n'
   912     114F  3420               	retlw	32	;' '
   913     1150  3400               	retlw	0
   914     1151                     STR_28:
   915     1151  3470               	retlw	112	;'p'
   916     1152  3472               	retlw	114	;'r'
   917     1153  346F               	retlw	111	;'o'
   918     1154  3467               	retlw	103	;'g'
   919     1155  343A               	retlw	58	;':'
   920     1156  3400               	retlw	0
   921     1157                     STR_35:
   922     1157  3452               	retlw	82	;'R'
   923     1158  3469               	retlw	105	;'i'
   924     1159  346E               	retlw	110	;'n'
   925     115A  3473               	retlw	115	;'s'
   926     115B  3465               	retlw	101	;'e'
   927     115C  3400               	retlw	0
   928     115D                     STR_1:
   929     115D  3444               	retlw	68	;'D'
   930     115E  3461               	retlw	97	;'a'
   931     115F  3469               	retlw	105	;'i'
   932     1160  346C               	retlw	108	;'l'
   933     1161  3479               	retlw	121	;'y'
   934     1162  3400               	retlw	0
   935     1163                     STR_2:
   936     1163  3448               	retlw	72	;'H'
   937     1164  3465               	retlw	101	;'e'
   938     1165  3461               	retlw	97	;'a'
   939     1166  3476               	retlw	118	;'v'
   940     1167  3479               	retlw	121	;'y'
   941     1168  3400               	retlw	0
   942     1169                     STR_16:
   943     1169  3448               	retlw	72	;'H'
   944     116A  3469               	retlw	105	;'i'
   945     116B  3467               	retlw	103	;'g'
   946     116C  3468               	retlw	104	;'h'
   947     116D  3400               	retlw	0
   948     116E                     STR_13:
   949     116E  3441               	retlw	65	;'A'
   950     116F  3475               	retlw	117	;'u'
   951     1170  3474               	retlw	116	;'t'
   952     1171  346F               	retlw	111	;'o'
   953     1172  3400               	retlw	0
   954     1173                     STR_14:
   955     1173  344C               	retlw	76	;'L'
   956     1174  346F               	retlw	111	;'o'
   957     1175  3477               	retlw	119	;'w'
   958     1176  3400               	retlw	0
   959     1177                     STR_17:
   960     1177  344D               	retlw	77	;'M'
   961     1178  3461               	retlw	97	;'a'
   962     1179  3478               	retlw	120	;'x'
   963     117A  3400               	retlw	0
   964     109C                     
   965                           	psect	cinit
   966     000F                     start_initialization:	
   967                           ; #config settings
   968                           
   969     000F                     __initialization:
   970                           
   971                           ; Initialize objects allocated to BANK1
   972     000F  1383               	bcf	3,7	;select IRP bank0
   973     0010  30C2               	movlw	low (__pdataBANK1+34)
   974     0011  00FD               	movwf	btemp+-1
   975     0012  3015               	movlw	high __pidataBANK1
   976     0013  00FE               	movwf	btemp
   977     0014  30A6               	movlw	low __pidataBANK1
   978     0015  00FF               	movwf	btemp+1
   979     0016  30A0               	movlw	low __pdataBANK1
   980     0017  0084               	movwf	4
   981     0018  160A  118A  2549  120A  118A  	fcall	init_ram0
   982                           
   983                           ; Initialize objects allocated to BANK0
   984     001D  3070               	movlw	low (__pdataBANK0+3)
   985     001E  00FD               	movwf	btemp+-1
   986     001F  3007               	movlw	high __pidataBANK0
   987     0020  00FE               	movwf	btemp
   988     0021  30FD               	movlw	low __pidataBANK0
   989     0022  00FF               	movwf	btemp+1
   990     0023  306D               	movlw	low __pdataBANK0
   991     0024  0084               	movwf	4
   992     0025  160A  118A  2549  120A  118A  	fcall	init_ram0
   993                           
   994                           ; Clear objects allocated to BANK1
   995     002A  1683               	bsf	3,5	;RP0=1, select bank1
   996     002B  1303               	bcf	3,6	;RP1=0, select bank1
   997     002C  01C2               	clrf	__pbssBANK1& (0+127)
   998     002D  01C3               	clrf	(__pbssBANK1+1)& (0+127)
   999                           
  1000                           ; Clear objects allocated to BANK0
  1001     002E  1283               	bcf	3,5	;RP0=0, select bank0
  1002     002F  1303               	bcf	3,6	;RP1=0, select bank0
  1003     0030  01DF               	clrf	__pbssBANK0& (0+127)
  1004     0031  01E0               	clrf	(__pbssBANK0+1)& (0+127)
  1005     0032  01E1               	clrf	(__pbssBANK0+2)& (0+127)
  1006     0033  01E2               	clrf	(__pbssBANK0+3)& (0+127)
  1007     0034  01E3               	clrf	(__pbssBANK0+4)& (0+127)
  1008     0035  01E4               	clrf	(__pbssBANK0+5)& (0+127)
  1009     0036  01E5               	clrf	(__pbssBANK0+6)& (0+127)
  1010     0037  01E6               	clrf	(__pbssBANK0+7)& (0+127)
  1011     0038  01E7               	clrf	(__pbssBANK0+8)& (0+127)
  1012     0039  01E8               	clrf	(__pbssBANK0+9)& (0+127)
  1013     003A  01E9               	clrf	(__pbssBANK0+10)& (0+127)
  1014     003B  01EA               	clrf	(__pbssBANK0+11)& (0+127)
  1015     003C  01EB               	clrf	(__pbssBANK0+12)& (0+127)
  1016     003D  01EC               	clrf	(__pbssBANK0+13)& (0+127)
  1017                           
  1018                           ; Clear objects allocated to COMMON
  1019     003E  01FA               	clrf	__pbssCOMMON& (0+127)
  1020     003F  01FB               	clrf	(__pbssCOMMON+1)& (0+127)
  1021     0040                     end_of_initialization:	
  1022                           ;End of C runtime variable initialization code
  1023                           
  1024     0040                     __end_of__initialization:
  1025     0040  0183               	clrf	3
  1026     0041  120A  158A  2CA7   	ljmp	_main	;jump to C main() function
  1027                           
  1028                           	psect	bssCOMMON
  1029     007A                     __pbssCOMMON:
  1030     007A                     _water_level_index:
  1031     007A                     	ds	1
  1032     007B                     _program_no:
  1033     007B                     	ds	1
  1034                           
  1035                           	psect	bssBANK0
  1036     005F                     __pbssBANK0:
  1037     005F                     run_program@time:
  1038     005F                     	ds	2
  1039     0061                     run_program@total_time:
  1040     0061                     	ds	2
  1041     0063                     _spin_time:
  1042     0063                     	ds	2
  1043     0065                     _wash_time:
  1044     0065                     	ds	2
  1045     0067                     _rinse_time:
  1046     0067                     	ds	2
  1047     0069                     read_digital_keypad@prev_key:
  1048     0069                     	ds	1
  1049     006A                     read_digital_keypad@longpress:
  1050     006A                     	ds	1
  1051     006B                     _sec:
  1052     006B                     	ds	1
  1053     006C                     _min:
  1054     006C                     	ds	1
  1055                           
  1056                           	psect	dataBANK0
  1057     006D                     __pdataBANK0:
  1058     006D                     read_digital_keypad@once:
  1059     006D                     	ds	1
  1060     006E                     _reset_mode:
  1061     006E                     	ds	1
  1062     006F                     _operation_mode:
  1063     006F                     	ds	1
  1064                           
  1065                           	psect	bssBANK1
  1066     00C2                     __pbssBANK1:
  1067     00C2                     isr@count:
  1068     00C2                     	ds	2
  1069                           
  1070                           	psect	dataBANK1
  1071     00A0                     __pdataBANK1:
  1072     00A0                     _washing_prog:
  1073     00A0                     	ds	24
  1074     00B8                     _water_level_option:
  1075     00B8                     	ds	10
  1076                           
  1077                           	psect	inittext
  1078     1545                     init_fetch0:	
  1079                           ;	Called with low address in FSR and high address in W
  1080                           
  1081     1545  087E               	movf	btemp,w
  1082     1546  008A               	movwf	10
  1083     1547  087F               	movf	btemp+1,w
  1084     1548  0082               	movwf	2
  1085     1549                     init_ram0:	
  1086                           ;Called with:
  1087                           ;	high address of idata address in btemp 
  1088                           ;	low address of idata address in btemp+1 
  1089                           ;	low address of data in FSR
  1090                           ;	high address + 1 of data in btemp-1
  1091                           
  1092     1549  160A  118A  2545  160A  118A  	fcall	init_fetch0
  1093     154E  0080               	movwf	0
  1094     154F  0A84               	incf	4,f
  1095     1550  0804               	movf	4,w
  1096     1551  067D               	xorwf	btemp+-1,w
  1097     1552  1903               	btfsc	3,2
  1098     1553  3400               	retlw	0
  1099     1554  0AFF               	incf	btemp+1,f
  1100     1555  1903               	btfsc	3,2
  1101     1556  0AFE               	incf	btemp,f
  1102     1557  2D49               	goto	init_ram0
  1103                           
  1104                           	psect	cstackCOMMON
  1105     0070                     __pcstackCOMMON:
  1106     0070                     ?_init_digital_keypad:
  1107     0070                     ?_init_clcd:	
  1108                           ; 1 bytes @ 0x0
  1109                           
  1110     0070                     ?_init_timer2:	
  1111                           ; 1 bytes @ 0x0
  1112                           
  1113     0070                     ?_read_digital_keypad:	
  1114                           ; 1 bytes @ 0x0
  1115                           
  1116     0070                     ?_power_on_screen:	
  1117                           ; 1 bytes @ 0x0
  1118                           
  1119     0070                     ?_set_time:	
  1120                           ; 1 bytes @ 0x0
  1121                           
  1122     0070                     ?_clear_screen:	
  1123                           ; 1 bytes @ 0x0
  1124                           
  1125     0070                     ?_washing_program_display:	
  1126                           ; 1 bytes @ 0x0
  1127                           
  1128     0070                     ?_water_level_display:	
  1129                           ; 1 bytes @ 0x0
  1130                           
  1131     0070                     ?_run_program:	
  1132                           ; 1 bytes @ 0x0
  1133                           
  1134     0070                     ?_door_status_check:	
  1135                           ; 1 bytes @ 0x0
  1136                           
  1137     0070                     ?_init_config:	
  1138                           ; 1 bytes @ 0x0
  1139                           
  1140     0070                     ?_main:	
  1141                           ; 1 bytes @ 0x0
  1142                           
  1143     0070                     ?_init_display_controller:	
  1144                           ; 1 bytes @ 0x0
  1145                           
  1146     0070                     ?_isr:	
  1147                           ; 1 bytes @ 0x0
  1148                           
  1149     0070                     ??_isr:	
  1150                           ; 1 bytes @ 0x0
  1151                           
  1152                           
  1153                           ; 1 bytes @ 0x0
  1154     0070                     	ds	2
  1155     0072                     ??_init_digital_keypad:
  1156     0072                     ??_init_timer2:	
  1157                           ; 1 bytes @ 0x2
  1158                           
  1159     0072                     ??_read_digital_keypad:	
  1160                           ; 1 bytes @ 0x2
  1161                           
  1162     0072                     ??_set_time:	
  1163                           ; 1 bytes @ 0x2
  1164                           
  1165     0072                     ?_clcd_write:	
  1166                           ; 1 bytes @ 0x2
  1167                           
  1168     0072                     ?__Umul8_16:	
  1169                           ; 1 bytes @ 0x2
  1170                           
  1171     0072                     ?___wmul:	
  1172                           ; 2 bytes @ 0x2
  1173                           
  1174     0072                     ?___awdiv:	
  1175                           ; 2 bytes @ 0x2
  1176                           
  1177     0072                     ?___awmod:	
  1178                           ; 2 bytes @ 0x2
  1179                           
  1180     0072                     ?___fladd:	
  1181                           ; 2 bytes @ 0x2
  1182                           
  1183     0072                     ?___xxtofl:	
  1184                           ; 4 bytes @ 0x2
  1185                           
  1186     0072                     clcd_write@mode:	
  1187                           ; 4 bytes @ 0x2
  1188                           
  1189     0072                     __Umul8_16@multiplicand:	
  1190                           ; 1 bytes @ 0x2
  1191                           
  1192     0072                     ___wmul@multiplier:	
  1193                           ; 1 bytes @ 0x2
  1194                           
  1195     0072                     ___awdiv@divisor:	
  1196                           ; 2 bytes @ 0x2
  1197                           
  1198     0072                     ___awmod@divisor:	
  1199                           ; 2 bytes @ 0x2
  1200                           
  1201     0072                     ___fladd@b:	
  1202                           ; 2 bytes @ 0x2
  1203                           
  1204     0072                     ___xxtofl@val:	
  1205                           ; 4 bytes @ 0x2
  1206                           
  1207                           
  1208                           ; 4 bytes @ 0x2
  1209     0072                     	ds	1
  1210     0073                     ??_clcd_write:
  1211     0073                     read_digital_keypad@mode:	
  1212                           ; 1 bytes @ 0x3
  1213                           
  1214                           
  1215                           ; 1 bytes @ 0x3
  1216     0073                     	ds	1
  1217     0074                     ??__Umul8_16:
  1218     0074                     ___wmul@multiplicand:	
  1219                           ; 1 bytes @ 0x4
  1220                           
  1221     0074                     ___awdiv@dividend:	
  1222                           ; 2 bytes @ 0x4
  1223                           
  1224     0074                     ___awmod@dividend:	
  1225                           ; 2 bytes @ 0x4
  1226                           
  1227                           
  1228                           ; 2 bytes @ 0x4
  1229     0074                     	ds	1
  1230     0075                     clcd_write@byte:
  1231                           
  1232                           ; 1 bytes @ 0x5
  1233     0075                     	ds	1
  1234     0076                     ?_clcd_print:
  1235     0076                     ??_clear_screen:	
  1236                           ; 1 bytes @ 0x6
  1237                           
  1238     0076                     ??_init_display_controller:	
  1239                           ; 1 bytes @ 0x6
  1240                           
  1241     0076                     ??___wmul:	
  1242                           ; 1 bytes @ 0x6
  1243                           
  1244     0076                     ??___awdiv:	
  1245                           ; 1 bytes @ 0x6
  1246                           
  1247     0076                     ??___awmod:	
  1248                           ; 1 bytes @ 0x6
  1249                           
  1250     0076                     ??___xxtofl:	
  1251                           ; 1 bytes @ 0x6
  1252                           
  1253     0076                     ___awdiv@counter:	
  1254                           ; 1 bytes @ 0x6
  1255                           
  1256     0076                     ___awmod@counter:	
  1257                           ; 1 bytes @ 0x6
  1258                           
  1259     0076                     clcd_print@str:	
  1260                           ; 1 bytes @ 0x6
  1261                           
  1262     0076                     ___wmul@product:	
  1263                           ; 2 bytes @ 0x6
  1264                           
  1265     0076                     ___fladd@a:	
  1266                           ; 2 bytes @ 0x6
  1267                           
  1268                           
  1269                           ; 4 bytes @ 0x6
  1270     0076                     	ds	1
  1271     0077                     ___awdiv@sign:
  1272     0077                     ___awmod@sign:	
  1273                           ; 1 bytes @ 0x7
  1274                           
  1275                           
  1276                           ; 1 bytes @ 0x7
  1277     0077                     	ds	1
  1278     0078                     ??_init_clcd:
  1279     0078                     ??_init_config:	
  1280                           ; 1 bytes @ 0x8
  1281                           
  1282     0078                     clcd_print@addr:	
  1283                           ; 1 bytes @ 0x8
  1284                           
  1285     0078                     ___awdiv@quotient:	
  1286                           ; 1 bytes @ 0x8
  1287                           
  1288                           
  1289                           ; 2 bytes @ 0x8
  1290     0078                     	ds	1
  1291     0079                     ??_clcd_print:
  1292     0079                     ??_door_status_check:	
  1293                           ; 1 bytes @ 0x9
  1294                           
  1295                           
  1296                           ; 1 bytes @ 0x9
  1297     0079                     	ds	1
  1298     007A                     ??_clcd_putch:
  1299     007A                     ??_main:	
  1300                           ; 1 bytes @ 0xA
  1301                           
  1302     007A                     ??___flsub:	
  1303                           ; 1 bytes @ 0xA
  1304                           
  1305                           
  1306                           	psect	cstackBANK0
  1307     0020                     __pcstackBANK0:	
  1308                           ; 1 bytes @ 0xA
  1309                           
  1310     0020                     ?_clcd_putch:
  1311     0020                     ??___fladd:	
  1312                           ; 1 bytes @ 0x0
  1313                           
  1314     0020                     clcd_putch@addr:	
  1315                           ; 1 bytes @ 0x0
  1316                           
  1317     0020                     ___xxtofl@sign:	
  1318                           ; 1 bytes @ 0x0
  1319                           
  1320     0020                     __Umul8_16@product:	
  1321                           ; 1 bytes @ 0x0
  1322                           
  1323                           
  1324                           ; 2 bytes @ 0x0
  1325     0020                     	ds	1
  1326     0021                     clcd_putch@data:
  1327     0021                     ___xxtofl@exp:	
  1328                           ; 1 bytes @ 0x1
  1329                           
  1330                           
  1331                           ; 1 bytes @ 0x1
  1332     0021                     	ds	1
  1333     0022                     ??_power_on_screen:
  1334     0022                     ??_washing_program_display:	
  1335                           ; 1 bytes @ 0x2
  1336                           
  1337     0022                     ??_water_level_display:	
  1338                           ; 1 bytes @ 0x2
  1339                           
  1340     0022                     __Umul8_16@word_mpld:	
  1341                           ; 1 bytes @ 0x2
  1342                           
  1343     0022                     ___xxtofl@arg:	
  1344                           ; 2 bytes @ 0x2
  1345                           
  1346                           
  1347                           ; 4 bytes @ 0x2
  1348     0022                     	ds	2
  1349     0024                     washing_program_display@key:
  1350     0024                     water_level_display@key:	
  1351                           ; 1 bytes @ 0x4
  1352                           
  1353     0024                     __Umul8_16@multiplier:	
  1354                           ; 1 bytes @ 0x4
  1355                           
  1356                           
  1357                           ; 1 bytes @ 0x4
  1358     0024                     	ds	1
  1359     0025                     power_on_screen@i:
  1360                           
  1361                           ; 1 bytes @ 0x5
  1362     0025                     	ds	1
  1363     0026                     ?___flmul:
  1364     0026                     power_on_screen@i_144:	
  1365                           ; 4 bytes @ 0x6
  1366                           
  1367     0026                     ___flmul@b:	
  1368                           ; 1 bytes @ 0x6
  1369                           
  1370                           
  1371                           ; 4 bytes @ 0x6
  1372     0026                     	ds	2
  1373     0028                     ___fladd@signs:
  1374                           
  1375                           ; 1 bytes @ 0x8
  1376     0028                     	ds	1
  1377     0029                     ___fladd@aexp:
  1378                           
  1379                           ; 1 bytes @ 0x9
  1380     0029                     	ds	1
  1381     002A                     ___fladd@bexp:
  1382     002A                     ___flmul@a:	
  1383                           ; 1 bytes @ 0xA
  1384                           
  1385                           
  1386                           ; 4 bytes @ 0xA
  1387     002A                     	ds	1
  1388     002B                     ___fladd@grs:
  1389                           
  1390                           ; 1 bytes @ 0xB
  1391     002B                     	ds	3
  1392     002E                     ??___flmul:
  1393                           
  1394                           ; 1 bytes @ 0xE
  1395     002E                     	ds	5
  1396     0033                     ___flmul@sign:
  1397                           
  1398                           ; 1 bytes @ 0x13
  1399     0033                     	ds	1
  1400     0034                     ___flmul@aexp:
  1401                           
  1402                           ; 1 bytes @ 0x14
  1403     0034                     	ds	1
  1404     0035                     ___flmul@grs:
  1405                           
  1406                           ; 4 bytes @ 0x15
  1407     0035                     	ds	4
  1408     0039                     ___flmul@bexp:
  1409                           
  1410                           ; 1 bytes @ 0x19
  1411     0039                     	ds	1
  1412     003A                     ___flmul@prod:
  1413                           
  1414                           ; 4 bytes @ 0x1A
  1415     003A                     	ds	4
  1416     003E                     ___flmul@temp:
  1417                           
  1418                           ; 2 bytes @ 0x1E
  1419     003E                     	ds	2
  1420     0040                     ?___fltol:
  1421     0040                     ?___flsub:	
  1422                           ; 4 bytes @ 0x20
  1423                           
  1424     0040                     ___fltol@f1:	
  1425                           ; 4 bytes @ 0x20
  1426                           
  1427     0040                     ___flsub@a:	
  1428                           ; 4 bytes @ 0x20
  1429                           
  1430                           
  1431                           ; 4 bytes @ 0x20
  1432     0040                     	ds	4
  1433     0044                     ??___fltol:
  1434     0044                     ___flsub@b:	
  1435                           ; 1 bytes @ 0x24
  1436                           
  1437                           
  1438                           ; 4 bytes @ 0x24
  1439     0044                     	ds	4
  1440     0048                     ?___flge:
  1441     0048                     ___fltol@sign1:	
  1442                           ; 1 bit 
  1443                           
  1444     0048                     ___flge@ff1:	
  1445                           ; 1 bytes @ 0x28
  1446                           
  1447                           
  1448                           ; 4 bytes @ 0x28
  1449     0048                     	ds	1
  1450     0049                     ___fltol@exp1:
  1451                           
  1452                           ; 1 bytes @ 0x29
  1453     0049                     	ds	3
  1454     004C                     ___flge@ff2:
  1455                           
  1456                           ; 4 bytes @ 0x2C
  1457     004C                     	ds	4
  1458     0050                     ??___flge:
  1459                           
  1460                           ; 1 bytes @ 0x30
  1461     0050                     	ds	4
  1462     0054                     ??_run_program:
  1463                           
  1464                           ; 1 bytes @ 0x34
  1465     0054                     	ds	6
  1466     005A                     run_program@key:
  1467                           
  1468                           ; 1 bytes @ 0x3A
  1469     005A                     	ds	1
  1470     005B                     main@wait:
  1471                           
  1472                           ; 2 bytes @ 0x3B
  1473     005B                     	ds	2
  1474     005D                     main@wait_136:
  1475                           
  1476                           ; 1 bytes @ 0x3D
  1477     005D                     	ds	1
  1478     005E                     main@key:
  1479                           
  1480                           ; 1 bytes @ 0x3E
  1481     005E                     	ds	1
  1482                           
  1483                           	psect	maintext
  1484     0CA7                     __pmaintext:	
  1485 ;;
  1486 ;;Main: autosize = 0, tempsize = 0, incstack = 0, save=0
  1487 ;;
  1488 ;; *************** function _main *****************
  1489 ;; Defined at:
  1490 ;;		line 47 in file "main.c"
  1491 ;; Parameters:    Size  Location     Type
  1492 ;;		None
  1493 ;; Auto vars:     Size  Location     Type
  1494 ;;  wait            1   61[BANK0 ] unsigned char 
  1495 ;;  wait            2   59[BANK0 ] unsigned int 
  1496 ;;  key             1   62[BANK0 ] unsigned char 
  1497 ;; Return value:  Size  Location     Type
  1498 ;;                  1    wreg      void 
  1499 ;; Registers used:
  1500 ;;		wreg, fsr0l, fsr0h, status,2, status,0, btemp+1, pclath, cstack
  1501 ;; Tracked objects:
  1502 ;;		On entry : B00/0
  1503 ;;		On exit  : 0/0
  1504 ;;		Unchanged: 0/0
  1505 ;; Data sizes:     COMMON   BANK0   BANK1   BANK3   BANK2
  1506 ;;      Params:         0       0       0       0       0
  1507 ;;      Locals:         0       4       0       0       0
  1508 ;;      Temps:          0       0       0       0       0
  1509 ;;      Totals:         0       4       0       0       0
  1510 ;;Total ram usage:        4 bytes
  1511 ;; Hardware stack levels required when called: 5
  1512 ;; This function calls:
  1513 ;;		_clcd_print
  1514 ;;		_clear_screen
  1515 ;;		_init_config
  1516 ;;		_power_on_screen
  1517 ;;		_read_digital_keypad
  1518 ;;		_run_program
  1519 ;;		_set_time
  1520 ;;		_washing_program_display
  1521 ;;		_water_level_display
  1522 ;; This function is called by:
  1523 ;;		Startup code after reset
  1524 ;; This function uses a non-reentrant model
  1525 ;;
  1526                           
  1527     0CA7                     _main:	
  1528                           ;psect for function _main
  1529                           
  1530     0CA7                     l3536:	
  1531                           ;incstack = 0
  1532                           ; Regs used in _main: [wreg-fsr0h+status,2+status,0+btemp+1+pclath+cstack]
  1533                           
  1534                           
  1535                           ;main.c: 48: 
  1536     0CA7  160A  118A  256D  120A  158A  	fcall	_init_config
  1537     0CAC                     l3538:
  1538     0CAC  3001               	movlw	1
  1539     0CAD  160A  118A  27A1  120A  158A  	fcall	_read_digital_keypad
  1540     0CB2                     l3540:
  1541                           
  1542                           ;main.c: 53:     while (1)
  1543     0CB2  304F               	movlw	low (STR_18| (0+32768))
  1544     0CB3  00F6               	movwf	clcd_print@str
  1545     0CB4  3090               	movlw	high (STR_18| (0+32768))
  1546     0CB5  00F7               	movwf	clcd_print@str+1
  1547     0CB6  3081               	movlw	129
  1548     0CB7  00F8               	movwf	clcd_print@addr
  1549     0CB8  160A  118A  2615  120A  158A  	fcall	_clcd_print
  1550     0CBD                     l3542:
  1551                           
  1552                           ;main.c: 54: 
  1553     0CBD  30C8               	movlw	low (STR_19| (0+32768))
  1554     0CBE  00F6               	movwf	clcd_print@str
  1555     0CBF  3090               	movlw	high (STR_19| (0+32768))
  1556     0CC0  00F7               	movwf	clcd_print@str+1
  1557     0CC1  30C4               	movlw	196
  1558     0CC2  00F8               	movwf	clcd_print@addr
  1559     0CC3  160A  118A  2615  120A  158A  	fcall	_clcd_print
  1560     0CC8                     l3544:
  1561                           
  1562                           ;main.c: 55:     {
  1563     0CC8  3011               	movlw	low (STR_20| (0+32768))
  1564     0CC9  00F6               	movwf	clcd_print@str
  1565     0CCA  3090               	movlw	high (STR_20| (0+32768))
  1566     0CCB  00F7               	movwf	clcd_print@str+1
  1567     0CCC  3091               	movlw	145
  1568     0CCD  00F8               	movwf	clcd_print@addr
  1569     0CCE  160A  118A  2615  120A  158A  	fcall	_clcd_print
  1570                           
  1571                           ;main.c: 60:       {
  1572     0CD3  2CE8               	goto	l3550
  1573     0CD4                     l3546:
  1574                           
  1575                           ;main.c: 61:           operation_mode = 0x02;;main.c: 62:           reset_mode = 0x11;
  1576     0CD4  30B8               	movlw	184
  1577     0CD5  1283               	bcf	3,5	;RP0=0, select bank0
  1578     0CD6  1303               	bcf	3,6	;RP1=0, select bank0
  1579     0CD7  00DB               	movwf	main@wait
  1580     0CD8  300B               	movlw	11
  1581     0CD9  00DC               	movwf	main@wait+1
  1582     0CDA                     l3548:
  1583     0CDA  3001               	movlw	1
  1584     0CDB  02DB               	subwf	main@wait,f
  1585     0CDC  3000               	movlw	0
  1586     0CDD  1C03               	skipc
  1587     0CDE  03DC               	decf	main@wait+1,f
  1588     0CDF  02DC               	subwf	main@wait+1,f
  1589     0CE0  0A5B               	incf	main@wait,w
  1590     0CE1  1D03               	skipz
  1591     0CE2  2CE7               	goto	u4601
  1592     0CE3  0A5C               	incf	main@wait+1,w
  1593     0CE4  1D03               	btfss	3,2
  1594     0CE5  2CE7               	goto	u4601
  1595     0CE6  2CE8               	goto	u4600
  1596     0CE7                     u4601:
  1597     0CE7  2CDA               	goto	l3548
  1598     0CE8                     u4600:
  1599     0CE8                     l3550:
  1600                           
  1601                           ;main.c: 60:       {
  1602     0CE8  3001               	movlw	1
  1603     0CE9  160A  118A  27A1  120A  158A  	fcall	_read_digital_keypad
  1604     0CEE  3A2F               	xorlw	47
  1605     0CEF  1D03               	skipz
  1606     0CF0  2CF2               	goto	u4611
  1607     0CF1  2CF3               	goto	u4610
  1608     0CF2                     u4611:
  1609     0CF2  2CD4               	goto	l3546
  1610     0CF3                     u4610:
  1611     0CF3                     l3552:
  1612                           
  1613                           ;main.c: 66: 
  1614     0CF3  160A  118A  2746  120A  158A  	fcall	_power_on_screen
  1615     0CF8                     l3554:
  1616                           
  1617                           ;main.c: 72: ;main.c: 73: 
  1618     0CF8  3001               	movlw	1
  1619     0CF9  160A  118A  27A1  120A  158A  	fcall	_read_digital_keypad
  1620     0CFE  1283               	bcf	3,5	;RP0=0, select bank0
  1621     0CFF  1303               	bcf	3,6	;RP1=0, select bank0
  1622     0D00  00DE               	movwf	main@key
  1623     0D01                     l3556:
  1624                           
  1625                           ;main.c: 74:           operation_mode = 0x03;
  1626     0D01  30E8               	movlw	232
  1627     0D02  00DD               	movwf	main@wait_136
  1628     0D03                     l3558:
  1629     0D03  3001               	movlw	1
  1630     0D04  02DD               	subwf	main@wait_136,f
  1631     0D05  0A5D               	incf	main@wait_136,w
  1632     0D06  1D03               	btfss	3,2
  1633     0D07  2D09               	goto	u4621
  1634     0D08  2D0A               	goto	u4620
  1635     0D09                     u4621:
  1636     0D09  2D03               	goto	l3558
  1637     0D0A                     u4620:
  1638     0D0A                     l3560:
  1639                           
  1640                           ;main.c: 76:            clear_screen();
  1641     0D0A  30B7               	movlw	183
  1642     0D0B  065E               	xorwf	main@key,w
  1643     0D0C  1D03               	btfss	3,2
  1644     0D0D  2D0F               	goto	u4631
  1645     0D0E  2D10               	goto	u4630
  1646     0D0F                     u4631:
  1647     0D0F  2D1A               	goto	l3566
  1648     0D10                     u4630:
  1649     0D10                     l3562:
  1650     0D10  036F               	decf	_operation_mode,w
  1651     0D11  1D03               	btfss	3,2
  1652     0D12  2D14               	goto	u4641
  1653     0D13  2D15               	goto	u4640
  1654     0D14                     u4641:
  1655     0D14  2D1A               	goto	l3566
  1656     0D15                     u4640:
  1657     0D15                     l3564:
  1658                           
  1659                           ;main.c: 77:            clcd_print("Press Switch",(0x80 + 2));;main.c: 78:            cl
      +                          cd_print("SW5: START",(0xC0 + 1));
  1660     0D15  3002               	movlw	2
  1661     0D16  00EF               	movwf	_operation_mode
  1662                           
  1663                           ;main.c: 79:            clcd_print("SW6: STOP",(0x90 + 1));
  1664     0D17  3011               	movlw	17
  1665     0D18  00EE               	movwf	_reset_mode
  1666                           
  1667                           ;main.c: 80: 
  1668     0D19  2D55               	goto	l3582
  1669     0D1A                     l3566:
  1670     0D1A  30B7               	movlw	183
  1671     0D1B  065E               	xorwf	main@key,w
  1672     0D1C  1D03               	btfss	3,2
  1673     0D1D  2D1F               	goto	u4651
  1674     0D1E  2D20               	goto	u4650
  1675     0D1F                     u4651:
  1676     0D1F  2D55               	goto	l3582
  1677     0D20                     u4650:
  1678     0D20                     l3568:
  1679     0D20  3002               	movlw	2
  1680     0D21  066F               	xorwf	_operation_mode,w
  1681     0D22  1D03               	btfss	3,2
  1682     0D23  2D25               	goto	u4661
  1683     0D24  2D26               	goto	u4660
  1684     0D25                     u4661:
  1685     0D25  2D55               	goto	l3582
  1686     0D26                     u4660:
  1687     0D26                     l3570:
  1688                           
  1689                           ;main.c: 86:           TMR2ON =1;;main.c: 88:           operation_mode= 0x04;
  1690     0D26  120A  158A  21C7  120A  158A  	fcall	_set_time
  1691     0D2B                     l3572:
  1692                           
  1693                           ;main.c: 91:       switch (operation_mode)
  1694     0D2B  3003               	movlw	3
  1695     0D2C  1283               	bcf	3,5	;RP0=0, select bank0
  1696     0D2D  1303               	bcf	3,6	;RP1=0, select bank0
  1697     0D2E  00EF               	movwf	_operation_mode
  1698     0D2F                     l3574:
  1699                           
  1700                           ;main.c: 93:           case 0x01:
  1701     0D2F  160A  118A  2538  120A  158A  	fcall	_clear_screen
  1702     0D34                     l3576:
  1703                           
  1704                           ;main.c: 94:                washing_program_display(key);
  1705     0D34  3077               	movlw	low (STR_21| (0+32768))
  1706     0D35  00F6               	movwf	clcd_print@str
  1707     0D36  3090               	movlw	high (STR_21| (0+32768))
  1708     0D37  00F7               	movwf	clcd_print@str+1
  1709     0D38  3082               	movlw	130
  1710     0D39  00F8               	movwf	clcd_print@addr
  1711     0D3A  160A  118A  2615  120A  158A  	fcall	_clcd_print
  1712     0D3F                     l3578:
  1713                           
  1714                           ;main.c: 95:                break;
  1715     0D3F  30A7               	movlw	low (STR_22| (0+32768))
  1716     0D40  00F6               	movwf	clcd_print@str
  1717     0D41  3090               	movlw	high (STR_22| (0+32768))
  1718     0D42  00F7               	movwf	clcd_print@str+1
  1719     0D43  30C1               	movlw	193
  1720     0D44  00F8               	movwf	clcd_print@addr
  1721     0D45  160A  118A  2615  120A  158A  	fcall	_clcd_print
  1722     0D4A                     l3580:
  1723                           
  1724                           ;main.c: 96: 
  1725     0D4A  30D2               	movlw	low (STR_23| (0+32768))
  1726     0D4B  00F6               	movwf	clcd_print@str
  1727     0D4C  3090               	movlw	high (STR_23| (0+32768))
  1728     0D4D  00F7               	movwf	clcd_print@str+1
  1729     0D4E  3091               	movlw	145
  1730     0D4F  00F8               	movwf	clcd_print@addr
  1731     0D50  160A  118A  2615  120A  158A  	fcall	_clcd_print
  1732     0D55                     l3582:
  1733                           
  1734                           ;main.c: 101:           case 0x03:
  1735     0D55  302F               	movlw	47
  1736     0D56  1283               	bcf	3,5	;RP0=0, select bank0
  1737     0D57  1303               	bcf	3,6	;RP1=0, select bank0
  1738     0D58  065E               	xorwf	main@key,w
  1739     0D59  1D03               	btfss	3,2
  1740     0D5A  2D5C               	goto	u4671
  1741     0D5B  2D5D               	goto	u4670
  1742     0D5C                     u4671:
  1743     0D5C  2D93               	goto	l3610
  1744     0D5D                     u4670:
  1745     0D5D                     l3584:
  1746     0D5D  3005               	movlw	5
  1747     0D5E  066F               	xorwf	_operation_mode,w
  1748     0D5F  1D03               	btfss	3,2
  1749     0D60  2D62               	goto	u4681
  1750     0D61  2D63               	goto	u4680
  1751     0D62                     u4681:
  1752     0D62  2D93               	goto	l3610
  1753     0D63                     u4680:
  1754     0D63                     l3586:
  1755                           
  1756                           ;main.c: 102: ;main.c: 103:               if (key == 0x2F)
  1757     0D63  1512               	bsf	18,2	;volatile
  1758                           
  1759                           ;main.c: 104:               {
  1760     0D64  1507               	bsf	7,2	;volatile
  1761     0D65                     l3588:
  1762                           
  1763                           ;main.c: 105:                   operation_mode = 0x04;
  1764     0D65  3004               	movlw	4
  1765     0D66  00EF               	movwf	_operation_mode
  1766     0D67  2D93               	goto	l3610
  1767     0D68                     l3590:
  1768                           
  1769                           ;main.c: 111:                   operation_mode = 0x01 ;
  1770     0D68  085E               	movf	main@key,w
  1771     0D69  120A  158A  22BB  120A  158A  	fcall	_washing_program_display
  1772                           
  1773                           ;main.c: 112:                   reset_mode = 0x10;
  1774     0D6E  2DA1               	goto	l3612
  1775     0D6F                     l3592:
  1776                           
  1777                           ;main.c: 115:               break;
  1778     0D6F  085E               	movf	main@key,w
  1779     0D70  120A  158A  23B1  120A  158A  	fcall	_water_level_display
  1780                           
  1781                           ;main.c: 116: 
  1782     0D75  2DA1               	goto	l3612
  1783     0D76                     l3594:
  1784                           
  1785                           ;main.c: 120: 
  1786     0D76  302F               	movlw	47
  1787     0D77  065E               	xorwf	main@key,w
  1788     0D78  1D03               	btfss	3,2
  1789     0D79  2D7B               	goto	u4691
  1790     0D7A  2D7C               	goto	u4690
  1791     0D7B                     u4691:
  1792     0D7B  2D81               	goto	l3600
  1793     0D7C                     u4690:
  1794     0D7C                     l3596:
  1795                           
  1796                           ;main.c: 121:       };main.c: 122:       reset_mode = 0x00;
  1797     0D7C  3004               	movlw	4
  1798     0D7D  00EF               	movwf	_operation_mode
  1799                           
  1800                           ;main.c: 123: 
  1801     0D7E  3012               	movlw	18
  1802     0D7F  00EE               	movwf	_reset_mode
  1803                           
  1804                           ;main.c: 124:     }
  1805     0D80  2CF8               	goto	l3554
  1806     0D81                     l3600:
  1807     0D81  301F               	movlw	31
  1808     0D82  065E               	xorwf	main@key,w
  1809     0D83  1D03               	btfss	3,2
  1810     0D84  2D86               	goto	u4701
  1811     0D85  2D87               	goto	u4700
  1812     0D86                     u4701:
  1813     0D86  2DA1               	goto	l3612
  1814     0D87                     u4700:
  1815     0D87                     l3602:
  1816                           
  1817                           ;main.c: 127: ;main.c: 128: void power_on_screen(void)
  1818     0D87  01EF               	clrf	_operation_mode
  1819     0D88  0AEF               	incf	_operation_mode,f
  1820     0D89                     l3604:
  1821                           
  1822                           ;main.c: 129: {
  1823     0D89  3010               	movlw	16
  1824     0D8A  00EE               	movwf	_reset_mode
  1825                           
  1826                           ;main.c: 130: 
  1827     0D8B  2CF8               	goto	l3554
  1828     0D8C                     l3606:
  1829                           
  1830                           ;main.c: 135:     clcd_print("Powering On",(0xC0 + 2));
  1831     0D8C  085E               	movf	main@key,w
  1832     0D8D  120A  118A  2044  120A  158A  	fcall	_run_program
  1833                           
  1834                           ;main.c: 136:     clcd_print("Washing Machine",(0x90 + 1));
  1835     0D92  2DA1               	goto	l3612
  1836     0D93                     l3610:
  1837     0D93  086F               	movf	_operation_mode,w
  1838                           
  1839                           ; Switch size 1, requested type "simple"
  1840                           ; Number of cases is 4, Range of values is 1 to 4
  1841                           ; switch strategies available:
  1842                           ; Name         Instructions Cycles
  1843                           ; simple_byte           13     7 (average)
  1844                           ; direct_byte           23    11 (fixed)
  1845                           ; jumptable            263     9 (fixed)
  1846                           ;	Chosen strategy is simple_byte
  1847     0D94  3A01               	xorlw	1	; case 1
  1848     0D95  1903               	skipnz
  1849     0D96  2D68               	goto	l3590
  1850     0D97  3A03               	xorlw	3	; case 2
  1851     0D98  1903               	skipnz
  1852     0D99  2D6F               	goto	l3592
  1853     0D9A  3A01               	xorlw	1	; case 3
  1854     0D9B  1903               	skipnz
  1855     0D9C  2D76               	goto	l3594
  1856     0D9D  3A07               	xorlw	7	; case 4
  1857     0D9E  1903               	skipnz
  1858     0D9F  2D8C               	goto	l3606
  1859     0DA0  2DA1               	goto	l3612
  1860     0DA1                     l3612:
  1861                           
  1862                           ;main.c: 139:     {
  1863     0DA1  1283               	bcf	3,5	;RP0=0, select bank0
  1864     0DA2  1303               	bcf	3,6	;RP1=0, select bank0
  1865     0DA3  01EE               	clrf	_reset_mode
  1866     0DA4  2CF8               	goto	l3554
  1867     0DA5  120A  118A  280C   	ljmp	start
  1868     0DA8                     __end_of_main:
  1869                           
  1870                           	psect	text1
  1871     0BB1                     __ptext1:	
  1872 ;; *************** function _water_level_display *****************
  1873 ;; Defined at:
  1874 ;;		line 219 in file "main.c"
  1875 ;; Parameters:    Size  Location     Type
  1876 ;;  key             1    wreg     unsigned char 
  1877 ;; Auto vars:     Size  Location     Type
  1878 ;;  key             1    4[BANK0 ] unsigned char 
  1879 ;; Return value:  Size  Location     Type
  1880 ;;                  1    wreg      void 
  1881 ;; Registers used:
  1882 ;;		wreg, fsr0l, fsr0h, status,2, status,0, btemp+1, pclath, cstack
  1883 ;; Tracked objects:
  1884 ;;		On entry : 0/0
  1885 ;;		On exit  : 0/0
  1886 ;;		Unchanged: 0/0
  1887 ;; Data sizes:     COMMON   BANK0   BANK1   BANK3   BANK2
  1888 ;;      Params:         0       0       0       0       0
  1889 ;;      Locals:         0       1       0       0       0
  1890 ;;      Temps:          0       2       0       0       0
  1891 ;;      Totals:         0       3       0       0       0
  1892 ;;Total ram usage:        3 bytes
  1893 ;; Hardware stack levels used: 1
  1894 ;; Hardware stack levels required when called: 3
  1895 ;; This function calls:
  1896 ;;		_clcd_print
  1897 ;;		_clcd_putch
  1898 ;;		_clear_screen
  1899 ;; This function is called by:
  1900 ;;		_main
  1901 ;; This function uses a non-reentrant model
  1902 ;;
  1903                           
  1904     0BB1                     _water_level_display:	
  1905                           ;psect for function _water_level_display
  1906                           
  1907                           
  1908                           ;incstack = 0
  1909                           ; Regs used in _water_level_display: [wreg-fsr0h+status,2+status,0+btemp+1+pclath+cstack
      +                          ]
  1910                           ;water_level_display@key stored from wreg
  1911     0BB1  1283               	bcf	3,5	;RP0=0, select bank0
  1912     0BB2  1303               	bcf	3,6	;RP1=0, select bank0
  1913     0BB3  00A4               	movwf	water_level_display@key
  1914     0BB4                     l3396:
  1915                           
  1916                           ;main.c: 219:           clear_screen();;main.c: 220:       };main.c: 221: 
  1917     0BB4  3011               	movlw	17
  1918     0BB5  066E               	xorwf	_reset_mode,w
  1919     0BB6  1D03               	btfss	3,2
  1920     0BB7  2BB9               	goto	u4441
  1921     0BB8  2BBA               	goto	u4440
  1922     0BB9                     u4441:
  1923     0BB9  2BC0               	goto	l3402
  1924     0BBA                     u4440:
  1925     0BBA                     l3398:
  1926                           
  1927                           ;main.c: 222: ;main.c: 223: 
  1928     0BBA  01FA               	clrf	_water_level_index
  1929     0BBB                     l3400:
  1930                           
  1931                           ;main.c: 224:       clcd_print("Water level:",(0x80 + 0));
  1932     0BBB  160A  118A  2538  120A  158A  	fcall	_clear_screen
  1933     0BC0                     l3402:
  1934                           
  1935                           ;main.c: 228: 
  1936     0BC0  3037               	movlw	55
  1937     0BC1  1283               	bcf	3,5	;RP0=0, select bank0
  1938     0BC2  1303               	bcf	3,6	;RP1=0, select bank0
  1939     0BC3  0624               	xorwf	water_level_display@key,w
  1940     0BC4  1D03               	btfss	3,2
  1941     0BC5  2BC7               	goto	u4451
  1942     0BC6  2BC8               	goto	u4450
  1943     0BC7                     u4451:
  1944     0BC7  2BD8               	goto	l3412
  1945     0BC8                     u4450:
  1946     0BC8                     l3404:
  1947                           
  1948                           ;main.c: 229: ;main.c: 231: 
  1949     0BC8  3001               	movlw	1
  1950     0BC9  00FF               	movwf	btemp+1
  1951     0BCA  087F               	movf	btemp+1,w
  1952     0BCB  07FA               	addwf	_water_level_index,f
  1953     0BCC                     l3406:
  1954                           
  1955                           ;main.c: 232: 
  1956     0BCC  3005               	movlw	5
  1957     0BCD  067A               	xorwf	_water_level_index,w
  1958     0BCE  1D03               	btfss	3,2
  1959     0BCF  2BD1               	goto	u4461
  1960     0BD0  2BD2               	goto	u4460
  1961     0BD1                     u4461:
  1962     0BD1  2BD3               	goto	l3410
  1963     0BD2                     u4460:
  1964     0BD2                     l3408:
  1965                           
  1966                           ;main.c: 233:       if (water_level_index <= 2);main.c: 234:       {
  1967     0BD2  01FA               	clrf	_water_level_index
  1968     0BD3                     l3410:
  1969                           
  1970                           ;main.c: 236:           clcd_print(water_level_option[water_level_index + 1],(0x90 + 2))
      +                          ;
  1971     0BD3  160A  118A  2538  120A  158A  	fcall	_clear_screen
  1972     0BD8                     l3412:
  1973                           
  1974                           ;main.c: 241:       {
  1975     0BD8  305D               	movlw	low (STR_27| (0+32768))
  1976     0BD9  00F6               	movwf	clcd_print@str
  1977     0BDA  3090               	movlw	high (STR_27| (0+32768))
  1978     0BDB  00F7               	movwf	clcd_print@str+1
  1979     0BDC  3080               	movlw	128
  1980     0BDD  00F8               	movwf	clcd_print@addr
  1981     0BDE  160A  118A  2615  120A  158A  	fcall	_clcd_print
  1982     0BE3                     l3414:
  1983                           
  1984                           ;main.c: 242:           clcd_print(water_level_option[water_level_index],(0xC0 + 2));
  1985     0BE3  30C0               	movlw	192
  1986     0BE4  1283               	bcf	3,5	;RP0=0, select bank0
  1987     0BE5  1303               	bcf	3,6	;RP1=0, select bank0
  1988     0BE6  00A0               	movwf	clcd_putch@addr
  1989     0BE7  302A               	movlw	42
  1990     0BE8  160A  118A  2558  120A  158A  	fcall	_clcd_putch
  1991     0BED                     l3416:
  1992                           
  1993                           ;main.c: 250:           clcd_print(water_level_option[1],(0xD0 + 2));
  1994     0BED  3003               	movlw	3
  1995     0BEE  027A               	subwf	_water_level_index,w
  1996     0BEF  1803               	skipnc
  1997     0BF0  2BF2               	goto	u4471
  1998     0BF1  2BF3               	goto	u4470
  1999     0BF2                     u4471:
  2000     0BF2  2C33               	goto	l3420
  2001     0BF3                     u4470:
  2002     0BF3                     l3418:
  2003                           
  2004                           ;main.c: 251:       };main.c: 252: 
  2005     0BF3  087A               	movf	_water_level_index,w
  2006     0BF4  1283               	bcf	3,5	;RP0=0, select bank0
  2007     0BF5  1303               	bcf	3,6	;RP1=0, select bank0
  2008     0BF6  00A2               	movwf	??_water_level_display
  2009     0BF7  0722               	addwf	??_water_level_display,w
  2010     0BF8  3EB8               	addlw	(low (_water_level_option| 0))& (0+255)
  2011     0BF9  0084               	movwf	4
  2012     0BFA  1383               	bcf	3,7	;select IRP bank1
  2013     0BFB  0800               	movf	0,w
  2014     0BFC  00F6               	movwf	clcd_print@str
  2015     0BFD  0A84               	incf	4,f
  2016     0BFE  0800               	movf	0,w
  2017     0BFF  0384               	decf	4,f
  2018     0C00  00F7               	movwf	clcd_print@str+1
  2019     0C01  30C2               	movlw	194
  2020     0C02  00F8               	movwf	clcd_print@addr
  2021     0C03  160A  118A  2615  120A  158A  	fcall	_clcd_print
  2022                           
  2023                           ;main.c: 253: 
  2024     0C08  087A               	movf	_water_level_index,w
  2025     0C09  1283               	bcf	3,5	;RP0=0, select bank0
  2026     0C0A  1303               	bcf	3,6	;RP1=0, select bank0
  2027     0C0B  00A2               	movwf	??_water_level_display
  2028     0C0C  0722               	addwf	??_water_level_display,w
  2029     0C0D  3EBA               	addlw	(low ((_water_level_option| 0+2)))& (0+255)
  2030     0C0E  0084               	movwf	4
  2031     0C0F  1383               	bcf	3,7	;select IRP bank1
  2032     0C10  0800               	movf	0,w
  2033     0C11  00F6               	movwf	clcd_print@str
  2034     0C12  0A84               	incf	4,f
  2035     0C13  0800               	movf	0,w
  2036     0C14  0384               	decf	4,f
  2037     0C15  00F7               	movwf	clcd_print@str+1
  2038     0C16  3092               	movlw	146
  2039     0C17  00F8               	movwf	clcd_print@addr
  2040     0C18  160A  118A  2615  120A  158A  	fcall	_clcd_print
  2041                           
  2042                           ;main.c: 254: 
  2043     0C1D  087A               	movf	_water_level_index,w
  2044     0C1E  1283               	bcf	3,5	;RP0=0, select bank0
  2045     0C1F  1303               	bcf	3,6	;RP1=0, select bank0
  2046     0C20  00A2               	movwf	??_water_level_display
  2047     0C21  0722               	addwf	??_water_level_display,w
  2048     0C22  3EBC               	addlw	(low ((_water_level_option| 0+4)))& (0+255)
  2049     0C23  0084               	movwf	4
  2050     0C24  1383               	bcf	3,7	;select IRP bank1
  2051     0C25  0800               	movf	0,w
  2052     0C26  00F6               	movwf	clcd_print@str
  2053     0C27  0A84               	incf	4,f
  2054     0C28  0800               	movf	0,w
  2055     0C29  0384               	decf	4,f
  2056     0C2A  00F7               	movwf	clcd_print@str+1
  2057     0C2B  30D2               	movlw	210
  2058     0C2C  00F8               	movwf	clcd_print@addr
  2059     0C2D  160A  118A  2615  120A  158A  	fcall	_clcd_print
  2060                           
  2061                           ;main.c: 255:   }
  2062     0C32  2CA6               	goto	l128
  2063     0C33                     l3420:
  2064     0C33  3003               	movlw	3
  2065     0C34  067A               	xorwf	_water_level_index,w
  2066     0C35  1D03               	btfss	3,2
  2067     0C36  2C38               	goto	u4481
  2068     0C37  2C39               	goto	u4480
  2069     0C38                     u4481:
  2070     0C38  2C71               	goto	l3424
  2071     0C39                     u4480:
  2072     0C39                     l3422:
  2073                           
  2074                           ;main.c: 258:   {;main.c: 259:       switch (program_no)
  2075     0C39  087A               	movf	_water_level_index,w
  2076     0C3A  1283               	bcf	3,5	;RP0=0, select bank0
  2077     0C3B  1303               	bcf	3,6	;RP1=0, select bank0
  2078     0C3C  00A2               	movwf	??_water_level_display
  2079     0C3D  0722               	addwf	??_water_level_display,w
  2080     0C3E  3EB8               	addlw	(low (_water_level_option| 0))& (0+255)
  2081     0C3F  0084               	movwf	4
  2082     0C40  1383               	bcf	3,7	;select IRP bank1
  2083     0C41  0800               	movf	0,w
  2084     0C42  00F6               	movwf	clcd_print@str
  2085     0C43  0A84               	incf	4,f
  2086     0C44  0800               	movf	0,w
  2087     0C45  0384               	decf	4,f
  2088     0C46  00F7               	movwf	clcd_print@str+1
  2089     0C47  30C2               	movlw	194
  2090     0C48  00F8               	movwf	clcd_print@addr
  2091     0C49  160A  118A  2615  120A  158A  	fcall	_clcd_print
  2092                           
  2093                           ;main.c: 260:       {
  2094     0C4E  087A               	movf	_water_level_index,w
  2095     0C4F  1283               	bcf	3,5	;RP0=0, select bank0
  2096     0C50  1303               	bcf	3,6	;RP1=0, select bank0
  2097     0C51  00A2               	movwf	??_water_level_display
  2098     0C52  0722               	addwf	??_water_level_display,w
  2099     0C53  3EBA               	addlw	(low ((_water_level_option| 0+2)))& (0+255)
  2100     0C54  0084               	movwf	4
  2101     0C55  1383               	bcf	3,7	;select IRP bank1
  2102     0C56  0800               	movf	0,w
  2103     0C57  00F6               	movwf	clcd_print@str
  2104     0C58  0A84               	incf	4,f
  2105     0C59  0800               	movf	0,w
  2106     0C5A  0384               	decf	4,f
  2107     0C5B  00F7               	movwf	clcd_print@str+1
  2108     0C5C  3092               	movlw	146
  2109     0C5D  00F8               	movwf	clcd_print@addr
  2110     0C5E  160A  118A  2615  120A  158A  	fcall	_clcd_print
  2111                           
  2112                           ;main.c: 261: 
  2113     0C63  1683               	bsf	3,5	;RP0=1, select bank1
  2114     0C64  1303               	bcf	3,6	;RP1=0, select bank1
  2115     0C65  0838               	movf	_water_level_option^(0+128),w
  2116     0C66  00F6               	movwf	clcd_print@str
  2117     0C67  0839               	movf	(_water_level_option+1)^(0+128),w
  2118     0C68  00F7               	movwf	clcd_print@str+1
  2119     0C69  30D2               	movlw	210
  2120     0C6A  00F8               	movwf	clcd_print@addr
  2121     0C6B  160A  118A  2615  120A  158A  	fcall	_clcd_print
  2122                           
  2123                           ;main.c: 262:           case 0:
  2124     0C70  2CA6               	goto	l128
  2125     0C71                     l3424:
  2126     0C71  3004               	movlw	4
  2127     0C72  067A               	xorwf	_water_level_index,w
  2128     0C73  1D03               	btfss	3,2
  2129     0C74  2C76               	goto	u4491
  2130     0C75  2C77               	goto	u4490
  2131     0C76                     u4491:
  2132     0C76  2CA6               	goto	l128
  2133     0C77                     u4490:
  2134     0C77                     l3426:
  2135                           
  2136                           ;main.c: 264:               {;main.c: 265:                   case 1:
  2137     0C77  087A               	movf	_water_level_index,w
  2138     0C78  1283               	bcf	3,5	;RP0=0, select bank0
  2139     0C79  1303               	bcf	3,6	;RP1=0, select bank0
  2140     0C7A  00A2               	movwf	??_water_level_display
  2141     0C7B  0722               	addwf	??_water_level_display,w
  2142     0C7C  3EB8               	addlw	(low (_water_level_option| 0))& (0+255)
  2143     0C7D  0084               	movwf	4
  2144     0C7E  1383               	bcf	3,7	;select IRP bank1
  2145     0C7F  0800               	movf	0,w
  2146     0C80  00F6               	movwf	clcd_print@str
  2147     0C81  0A84               	incf	4,f
  2148     0C82  0800               	movf	0,w
  2149     0C83  0384               	decf	4,f
  2150     0C84  00F7               	movwf	clcd_print@str+1
  2151     0C85  30C2               	movlw	194
  2152     0C86  00F8               	movwf	clcd_print@addr
  2153     0C87  160A  118A  2615  120A  158A  	fcall	_clcd_print
  2154                           
  2155                           ;main.c: 266:                       sec = 33;
  2156     0C8C  1683               	bsf	3,5	;RP0=1, select bank1
  2157     0C8D  1303               	bcf	3,6	;RP1=0, select bank1
  2158     0C8E  0838               	movf	_water_level_option^(0+128),w
  2159     0C8F  00F6               	movwf	clcd_print@str
  2160     0C90  0839               	movf	(_water_level_option+1)^(0+128),w
  2161     0C91  00F7               	movwf	clcd_print@str+1
  2162     0C92  3092               	movlw	146
  2163     0C93  00F8               	movwf	clcd_print@addr
  2164     0C94  160A  118A  2615  120A  158A  	fcall	_clcd_print
  2165                           
  2166                           ;main.c: 267:                       min =0;
  2167     0C99  1683               	bsf	3,5	;RP0=1, select bank1
  2168     0C9A  1303               	bcf	3,6	;RP1=0, select bank1
  2169     0C9B  083A               	movf	(low ((_water_level_option| 0+2)))^(0+128),w
  2170     0C9C  00F6               	movwf	clcd_print@str
  2171     0C9D  083B               	movf	((low ((_water_level_option| 0+2))+1))^(0+128),w
  2172     0C9E  00F7               	movwf	clcd_print@str+1
  2173     0C9F  30D2               	movlw	210
  2174     0CA0  00F8               	movwf	clcd_print@addr
  2175     0CA1  160A  118A  2615  120A  158A  	fcall	_clcd_print
  2176     0CA6                     l128:
  2177     0CA6  0008               	return
  2178     0CA7                     __end_of_water_level_display:
  2179                           
  2180                           	psect	text2
  2181     0ABB                     __ptext2:	
  2182 ;; *************** function _washing_program_display *****************
  2183 ;; Defined at:
  2184 ;;		line 166 in file "main.c"
  2185 ;; Parameters:    Size  Location     Type
  2186 ;;  key             1    wreg     unsigned char 
  2187 ;; Auto vars:     Size  Location     Type
  2188 ;;  key             1    4[BANK0 ] unsigned char 
  2189 ;; Return value:  Size  Location     Type
  2190 ;;                  1    wreg      void 
  2191 ;; Registers used:
  2192 ;;		wreg, fsr0l, fsr0h, status,2, status,0, btemp+1, pclath, cstack
  2193 ;; Tracked objects:
  2194 ;;		On entry : 0/0
  2195 ;;		On exit  : 0/0
  2196 ;;		Unchanged: 0/0
  2197 ;; Data sizes:     COMMON   BANK0   BANK1   BANK3   BANK2
  2198 ;;      Params:         0       0       0       0       0
  2199 ;;      Locals:         0       1       0       0       0
  2200 ;;      Temps:          0       2       0       0       0
  2201 ;;      Totals:         0       3       0       0       0
  2202 ;;Total ram usage:        3 bytes
  2203 ;; Hardware stack levels used: 1
  2204 ;; Hardware stack levels required when called: 3
  2205 ;; This function calls:
  2206 ;;		_clcd_print
  2207 ;;		_clcd_putch
  2208 ;;		_clear_screen
  2209 ;; This function is called by:
  2210 ;;		_main
  2211 ;; This function uses a non-reentrant model
  2212 ;;
  2213                           
  2214     0ABB                     _washing_program_display:	
  2215                           ;psect for function _washing_program_display
  2216                           
  2217                           
  2218                           ;incstack = 0
  2219                           ; Regs used in _washing_program_display: [wreg-fsr0h+status,2+status,0+btemp+1+pclath+cs
      +                          tack]
  2220                           ;washing_program_display@key stored from wreg
  2221     0ABB  1283               	bcf	3,5	;RP0=0, select bank0
  2222     0ABC  1303               	bcf	3,6	;RP1=0, select bank0
  2223     0ABD  00A4               	movwf	washing_program_display@key
  2224     0ABE                     l3364:
  2225                           
  2226                           ;main.c: 166:         {;main.c: 167:             program_no =0;;main.c: 169:         }
  2227     0ABE  3010               	movlw	16
  2228     0ABF  066E               	xorwf	_reset_mode,w
  2229     0AC0  1D03               	btfss	3,2
  2230     0AC1  2AC3               	goto	u4381
  2231     0AC2  2AC4               	goto	u4380
  2232     0AC3                     u4381:
  2233     0AC3  2ACA               	goto	l3370
  2234     0AC4                     u4380:
  2235     0AC4                     l3366:
  2236                           
  2237                           ;main.c: 170:     };main.c: 171: 
  2238     0AC4  160A  118A  2538  120A  158A  	fcall	_clear_screen
  2239     0AC9                     l3368:
  2240                           
  2241                           ;main.c: 172:     clcd_print("washing_program",(0x80 + 0));
  2242     0AC9  01FB               	clrf	_program_no
  2243     0ACA                     l3370:
  2244                           
  2245                           ;main.c: 178:         clcd_print(washing_prog[program_no],(0xC0 + 2));
  2246     0ACA  3037               	movlw	55
  2247     0ACB  1283               	bcf	3,5	;RP0=0, select bank0
  2248     0ACC  1303               	bcf	3,6	;RP1=0, select bank0
  2249     0ACD  0624               	xorwf	washing_program_display@key,w
  2250     0ACE  1D03               	btfss	3,2
  2251     0ACF  2AD1               	goto	u4391
  2252     0AD0  2AD2               	goto	u4390
  2253     0AD1                     u4391:
  2254     0AD1  2AE2               	goto	l3380
  2255     0AD2                     u4390:
  2256     0AD2                     l3372:
  2257                           
  2258                           ;main.c: 179:         clcd_print(washing_prog[program_no + 1],(0x90 + 2));;main.c: 180: 
      +                                  clcd_print(washing_prog[program_no + 2],(0xD0 + 2));
  2259     0AD2  3001               	movlw	1
  2260     0AD3  00FF               	movwf	btemp+1
  2261     0AD4  087F               	movf	btemp+1,w
  2262     0AD5  07FB               	addwf	_program_no,f
  2263     0AD6                     l3374:
  2264                           
  2265                           ;main.c: 181:     }
  2266     0AD6  160A  118A  2538  120A  158A  	fcall	_clear_screen
  2267     0ADB                     l3376:
  2268                           
  2269                           ;main.c: 182: 
  2270     0ADB  300C               	movlw	12
  2271     0ADC  067B               	xorwf	_program_no,w
  2272     0ADD  1D03               	btfss	3,2
  2273     0ADE  2AE0               	goto	u4401
  2274     0ADF  2AE1               	goto	u4400
  2275     0AE0                     u4401:
  2276     0AE0  2AE2               	goto	l3380
  2277     0AE1                     u4400:
  2278     0AE1                     l3378:
  2279                           
  2280                           ;main.c: 183: ;main.c: 184:     else if (program_no == 10)
  2281     0AE1  01FB               	clrf	_program_no
  2282     0AE2                     l3380:
  2283                           
  2284                           ;main.c: 189: 
  2285     0AE2  3021               	movlw	low (STR_26| (0+32768))
  2286     0AE3  00F6               	movwf	clcd_print@str
  2287     0AE4  3090               	movlw	high (STR_26| (0+32768))
  2288     0AE5  00F7               	movwf	clcd_print@str+1
  2289     0AE6  3080               	movlw	128
  2290     0AE7  00F8               	movwf	clcd_print@addr
  2291     0AE8  160A  118A  2615  120A  158A  	fcall	_clcd_print
  2292     0AED                     l3382:
  2293                           
  2294                           ;main.c: 190:     }
  2295     0AED  30C0               	movlw	192
  2296     0AEE  1283               	bcf	3,5	;RP0=0, select bank0
  2297     0AEF  1303               	bcf	3,6	;RP1=0, select bank0
  2298     0AF0  00A0               	movwf	clcd_putch@addr
  2299     0AF1  302A               	movlw	42
  2300     0AF2  160A  118A  2558  120A  158A  	fcall	_clcd_putch
  2301     0AF7                     l3384:
  2302                           
  2303                           ;main.c: 193:     else if (program_no == 11)
  2304     0AF7  300A               	movlw	10
  2305     0AF8  027B               	subwf	_program_no,w
  2306     0AF9  1803               	skipnc
  2307     0AFA  2AFC               	goto	u4411
  2308     0AFB  2AFD               	goto	u4410
  2309     0AFC                     u4411:
  2310     0AFC  2B3D               	goto	l3388
  2311     0AFD                     u4410:
  2312     0AFD                     l3386:
  2313                           
  2314                           ;main.c: 194:     {;main.c: 195:          clcd_print(washing_prog[program_no],(0xC0 + 2)
      +                          );
  2315     0AFD  087B               	movf	_program_no,w
  2316     0AFE  1283               	bcf	3,5	;RP0=0, select bank0
  2317     0AFF  1303               	bcf	3,6	;RP1=0, select bank0
  2318     0B00  00A2               	movwf	??_washing_program_display
  2319     0B01  0722               	addwf	??_washing_program_display,w
  2320     0B02  3EA0               	addlw	(low (_washing_prog| 0))& (0+255)
  2321     0B03  0084               	movwf	4
  2322     0B04  1383               	bcf	3,7	;select IRP bank1
  2323     0B05  0800               	movf	0,w
  2324     0B06  00F6               	movwf	clcd_print@str
  2325     0B07  0A84               	incf	4,f
  2326     0B08  0800               	movf	0,w
  2327     0B09  0384               	decf	4,f
  2328     0B0A  00F7               	movwf	clcd_print@str+1
  2329     0B0B  30C2               	movlw	194
  2330     0B0C  00F8               	movwf	clcd_print@addr
  2331     0B0D  160A  118A  2615  120A  158A  	fcall	_clcd_print
  2332                           
  2333                           ;main.c: 196:          clcd_print(washing_prog[0],(0x90 + 2));
  2334     0B12  087B               	movf	_program_no,w
  2335     0B13  1283               	bcf	3,5	;RP0=0, select bank0
  2336     0B14  1303               	bcf	3,6	;RP1=0, select bank0
  2337     0B15  00A2               	movwf	??_washing_program_display
  2338     0B16  0722               	addwf	??_washing_program_display,w
  2339     0B17  3EA2               	addlw	(low ((_washing_prog| 0+2)))& (0+255)
  2340     0B18  0084               	movwf	4
  2341     0B19  1383               	bcf	3,7	;select IRP bank1
  2342     0B1A  0800               	movf	0,w
  2343     0B1B  00F6               	movwf	clcd_print@str
  2344     0B1C  0A84               	incf	4,f
  2345     0B1D  0800               	movf	0,w
  2346     0B1E  0384               	decf	4,f
  2347     0B1F  00F7               	movwf	clcd_print@str+1
  2348     0B20  3092               	movlw	146
  2349     0B21  00F8               	movwf	clcd_print@addr
  2350     0B22  160A  118A  2615  120A  158A  	fcall	_clcd_print
  2351                           
  2352                           ;main.c: 197:          clcd_print(washing_prog[1],(0xD0 + 2));
  2353     0B27  087B               	movf	_program_no,w
  2354     0B28  1283               	bcf	3,5	;RP0=0, select bank0
  2355     0B29  1303               	bcf	3,6	;RP1=0, select bank0
  2356     0B2A  00A2               	movwf	??_washing_program_display
  2357     0B2B  0722               	addwf	??_washing_program_display,w
  2358     0B2C  3EA4               	addlw	(low ((_washing_prog| 0+4)))& (0+255)
  2359     0B2D  0084               	movwf	4
  2360     0B2E  1383               	bcf	3,7	;select IRP bank1
  2361     0B2F  0800               	movf	0,w
  2362     0B30  00F6               	movwf	clcd_print@str
  2363     0B31  0A84               	incf	4,f
  2364     0B32  0800               	movf	0,w
  2365     0B33  0384               	decf	4,f
  2366     0B34  00F7               	movwf	clcd_print@str+1
  2367     0B35  30D2               	movlw	210
  2368     0B36  00F8               	movwf	clcd_print@addr
  2369     0B37  160A  118A  2615  120A  158A  	fcall	_clcd_print
  2370                           
  2371                           ;main.c: 198: 
  2372     0B3C  2BB0               	goto	l117
  2373     0B3D                     l3388:
  2374     0B3D  300A               	movlw	10
  2375     0B3E  067B               	xorwf	_program_no,w
  2376     0B3F  1D03               	btfss	3,2
  2377     0B40  2B42               	goto	u4421
  2378     0B41  2B43               	goto	u4420
  2379     0B42                     u4421:
  2380     0B42  2B7B               	goto	l3392
  2381     0B43                     u4420:
  2382     0B43                     l3390:
  2383                           
  2384                           ;main.c: 202:   void water_level_display (unsigned char key);main.c: 203:   {
  2385     0B43  087B               	movf	_program_no,w
  2386     0B44  1283               	bcf	3,5	;RP0=0, select bank0
  2387     0B45  1303               	bcf	3,6	;RP1=0, select bank0
  2388     0B46  00A2               	movwf	??_washing_program_display
  2389     0B47  0722               	addwf	??_washing_program_display,w
  2390     0B48  3EA0               	addlw	(low (_washing_prog| 0))& (0+255)
  2391     0B49  0084               	movwf	4
  2392     0B4A  1383               	bcf	3,7	;select IRP bank1
  2393     0B4B  0800               	movf	0,w
  2394     0B4C  00F6               	movwf	clcd_print@str
  2395     0B4D  0A84               	incf	4,f
  2396     0B4E  0800               	movf	0,w
  2397     0B4F  0384               	decf	4,f
  2398     0B50  00F7               	movwf	clcd_print@str+1
  2399     0B51  30C2               	movlw	194
  2400     0B52  00F8               	movwf	clcd_print@addr
  2401     0B53  160A  118A  2615  120A  158A  	fcall	_clcd_print
  2402                           
  2403                           ;main.c: 204:       if (reset_mode == 0x11 )
  2404     0B58  087B               	movf	_program_no,w
  2405     0B59  1283               	bcf	3,5	;RP0=0, select bank0
  2406     0B5A  1303               	bcf	3,6	;RP1=0, select bank0
  2407     0B5B  00A2               	movwf	??_washing_program_display
  2408     0B5C  0722               	addwf	??_washing_program_display,w
  2409     0B5D  3EA2               	addlw	(low ((_washing_prog| 0+2)))& (0+255)
  2410     0B5E  0084               	movwf	4
  2411     0B5F  1383               	bcf	3,7	;select IRP bank1
  2412     0B60  0800               	movf	0,w
  2413     0B61  00F6               	movwf	clcd_print@str
  2414     0B62  0A84               	incf	4,f
  2415     0B63  0800               	movf	0,w
  2416     0B64  0384               	decf	4,f
  2417     0B65  00F7               	movwf	clcd_print@str+1
  2418     0B66  3092               	movlw	146
  2419     0B67  00F8               	movwf	clcd_print@addr
  2420     0B68  160A  118A  2615  120A  158A  	fcall	_clcd_print
  2421                           
  2422                           ;main.c: 205:       {
  2423     0B6D  1683               	bsf	3,5	;RP0=1, select bank1
  2424     0B6E  1303               	bcf	3,6	;RP1=0, select bank1
  2425     0B6F  0820               	movf	_washing_prog^(0+128),w
  2426     0B70  00F6               	movwf	clcd_print@str
  2427     0B71  0821               	movf	(_washing_prog+1)^(0+128),w
  2428     0B72  00F7               	movwf	clcd_print@str+1
  2429     0B73  30D2               	movlw	210
  2430     0B74  00F8               	movwf	clcd_print@addr
  2431     0B75  160A  118A  2615  120A  158A  	fcall	_clcd_print
  2432                           
  2433                           ;main.c: 207:           clear_screen();
  2434     0B7A  2BB0               	goto	l117
  2435     0B7B                     l3392:
  2436     0B7B  300B               	movlw	11
  2437     0B7C  067B               	xorwf	_program_no,w
  2438     0B7D  1D03               	btfss	3,2
  2439     0B7E  2B80               	goto	u4431
  2440     0B7F  2B81               	goto	u4430
  2441     0B80                     u4431:
  2442     0B80  2BB0               	goto	l117
  2443     0B81                     u4430:
  2444     0B81                     l3394:
  2445                           
  2446                           ;main.c: 211:       if(key == 0x37);main.c: 212:       {
  2447     0B81  087B               	movf	_program_no,w
  2448     0B82  1283               	bcf	3,5	;RP0=0, select bank0
  2449     0B83  1303               	bcf	3,6	;RP1=0, select bank0
  2450     0B84  00A2               	movwf	??_washing_program_display
  2451     0B85  0722               	addwf	??_washing_program_display,w
  2452     0B86  3EA0               	addlw	(low (_washing_prog| 0))& (0+255)
  2453     0B87  0084               	movwf	4
  2454     0B88  1383               	bcf	3,7	;select IRP bank1
  2455     0B89  0800               	movf	0,w
  2456     0B8A  00F6               	movwf	clcd_print@str
  2457     0B8B  0A84               	incf	4,f
  2458     0B8C  0800               	movf	0,w
  2459     0B8D  0384               	decf	4,f
  2460     0B8E  00F7               	movwf	clcd_print@str+1
  2461     0B8F  30C2               	movlw	194
  2462     0B90  00F8               	movwf	clcd_print@addr
  2463     0B91  160A  118A  2615  120A  158A  	fcall	_clcd_print
  2464                           
  2465                           ;main.c: 213: 
  2466     0B96  1683               	bsf	3,5	;RP0=1, select bank1
  2467     0B97  1303               	bcf	3,6	;RP1=0, select bank1
  2468     0B98  0820               	movf	_washing_prog^(0+128),w
  2469     0B99  00F6               	movwf	clcd_print@str
  2470     0B9A  0821               	movf	(_washing_prog+1)^(0+128),w
  2471     0B9B  00F7               	movwf	clcd_print@str+1
  2472     0B9C  3092               	movlw	146
  2473     0B9D  00F8               	movwf	clcd_print@addr
  2474     0B9E  160A  118A  2615  120A  158A  	fcall	_clcd_print
  2475                           
  2476                           ;main.c: 214:           water_level_index++ ;
  2477     0BA3  1683               	bsf	3,5	;RP0=1, select bank1
  2478     0BA4  1303               	bcf	3,6	;RP1=0, select bank1
  2479     0BA5  0822               	movf	(low ((_washing_prog| 0+2)))^(0+128),w
  2480     0BA6  00F6               	movwf	clcd_print@str
  2481     0BA7  0823               	movf	((low ((_washing_prog| 0+2))+1))^(0+128),w
  2482     0BA8  00F7               	movwf	clcd_print@str+1
  2483     0BA9  30D2               	movlw	210
  2484     0BAA  00F8               	movwf	clcd_print@addr
  2485     0BAB  160A  118A  2615  120A  158A  	fcall	_clcd_print
  2486     0BB0                     l117:
  2487     0BB0  0008               	return
  2488     0BB1                     __end_of_washing_program_display:
  2489                           
  2490                           	psect	text3
  2491     09C7                     __ptext3:	
  2492 ;; *************** function _set_time *****************
  2493 ;; Defined at:
  2494 ;;		line 274 in file "main.c"
  2495 ;; Parameters:    Size  Location     Type
  2496 ;;		None
  2497 ;; Auto vars:     Size  Location     Type
  2498 ;;		None
  2499 ;; Return value:  Size  Location     Type
  2500 ;;                  1    wreg      void 
  2501 ;; Registers used:
  2502 ;;		wreg, fsr0l, fsr0h, status,2, status,0
  2503 ;; Tracked objects:
  2504 ;;		On entry : 0/0
  2505 ;;		On exit  : 0/0
  2506 ;;		Unchanged: 0/0
  2507 ;; Data sizes:     COMMON   BANK0   BANK1   BANK3   BANK2
  2508 ;;      Params:         0       0       0       0       0
  2509 ;;      Locals:         0       0       0       0       0
  2510 ;;      Temps:          0       0       0       0       0
  2511 ;;      Totals:         0       0       0       0       0
  2512 ;;Total ram usage:        0 bytes
  2513 ;; Hardware stack levels used: 1
  2514 ;; Hardware stack levels required when called: 1
  2515 ;; This function calls:
  2516 ;;		Nothing
  2517 ;; This function is called by:
  2518 ;;		_main
  2519 ;; This function uses a non-reentrant model
  2520 ;;
  2521                           
  2522     09C7                     _set_time:	
  2523                           ;psect for function _set_time
  2524                           
  2525     09C7                     l2708:	
  2526                           ;incstack = 0
  2527                           ; Regs used in _set_time: [wreg-fsr0h+status,2+status,0]
  2528                           
  2529                           
  2530                           ;main.c: 276: 
  2531     09C7  2A94               	goto	l2820
  2532     09C8                     l2710:
  2533                           
  2534                           ;main.c: 283:               }
  2535     09C8  3021               	movlw	33
  2536     09C9  1283               	bcf	3,5	;RP0=0, select bank0
  2537     09CA  1303               	bcf	3,6	;RP1=0, select bank0
  2538     09CB  00EB               	movwf	_sec
  2539     09CC                     l2712:
  2540                           
  2541                           ;main.c: 284:               break;
  2542     09CC  01EC               	clrf	_min
  2543                           
  2544                           ;main.c: 285: 
  2545     09CD  2ABA               	goto	l187
  2546     09CE                     l2714:
  2547                           
  2548                           ;main.c: 289:                   case 1:
  2549     09CE  3029               	movlw	41
  2550     09CF  1283               	bcf	3,5	;RP0=0, select bank0
  2551     09D0  1303               	bcf	3,6	;RP1=0, select bank0
  2552     09D1  00EB               	movwf	_sec
  2553     09D2  29CC               	goto	l2712
  2554     09D3                     l2718:
  2555                           
  2556                           ;main.c: 296:                       sec =50;
  2557     09D3  302D               	movlw	45
  2558     09D4  1283               	bcf	3,5	;RP0=0, select bank0
  2559     09D5  1303               	bcf	3,6	;RP1=0, select bank0
  2560     09D6  00EB               	movwf	_sec
  2561     09D7  29CC               	goto	l2712
  2562     09D8                     l2724:
  2563     09D8  087A               	movf	_water_level_index,w
  2564                           
  2565                           ; Switch size 1, requested type "simple"
  2566                           ; Number of cases is 5, Range of values is 0 to 4
  2567                           ; switch strategies available:
  2568                           ; Name         Instructions Cycles
  2569                           ; simple_byte           16     9 (average)
  2570                           ; direct_byte           23     8 (fixed)
  2571                           ; jumptable            260     6 (fixed)
  2572                           ;	Chosen strategy is simple_byte
  2573     09D9  3A00               	xorlw	0	; case 0
  2574     09DA  1903               	skipnz
  2575     09DB  29CE               	goto	l2714
  2576     09DC  3A01               	xorlw	1	; case 1
  2577     09DD  1903               	skipnz
  2578     09DE  29C8               	goto	l2710
  2579     09DF  3A03               	xorlw	3	; case 2
  2580     09E0  1903               	skipnz
  2581     09E1  29CE               	goto	l2714
  2582     09E2  3A01               	xorlw	1	; case 3
  2583     09E3  1903               	skipnz
  2584     09E4  29D3               	goto	l2718
  2585     09E5  3A07               	xorlw	7	; case 4
  2586     09E6  1903               	skipnz
  2587     09E7  29D3               	goto	l2718
  2588     09E8  2ABA               	goto	l187
  2589     09E9                     l2726:
  2590                           
  2591                           ;main.c: 307:               }
  2592     09E9  302B               	movlw	43
  2593     09EA  1283               	bcf	3,5	;RP0=0, select bank0
  2594     09EB  1303               	bcf	3,6	;RP1=0, select bank0
  2595     09EC  00EB               	movwf	_sec
  2596     09ED  29CC               	goto	l2712
  2597     09EE                     l2730:
  2598                           
  2599                           ;main.c: 313:               {
  2600     09EE  3032               	movlw	50
  2601     09EF  1283               	bcf	3,5	;RP0=0, select bank0
  2602     09F0  1303               	bcf	3,6	;RP1=0, select bank0
  2603     09F1  00EB               	movwf	_sec
  2604     09F2  29CC               	goto	l2712
  2605     09F3                     l2734:
  2606                           
  2607                           ;main.c: 320:                       break;
  2608     09F3  3039               	movlw	57
  2609     09F4  1283               	bcf	3,5	;RP0=0, select bank0
  2610     09F5  1303               	bcf	3,6	;RP1=0, select bank0
  2611     09F6  00EB               	movwf	_sec
  2612     09F7  29CC               	goto	l2712
  2613     09F8                     l2740:
  2614     09F8  087A               	movf	_water_level_index,w
  2615                           
  2616                           ; Switch size 1, requested type "simple"
  2617                           ; Number of cases is 5, Range of values is 0 to 4
  2618                           ; switch strategies available:
  2619                           ; Name         Instructions Cycles
  2620                           ; simple_byte           16     9 (average)
  2621                           ; direct_byte           23     8 (fixed)
  2622                           ; jumptable            260     6 (fixed)
  2623                           ;	Chosen strategy is simple_byte
  2624     09F9  3A00               	xorlw	0	; case 0
  2625     09FA  1903               	skipnz
  2626     09FB  29EE               	goto	l2730
  2627     09FC  3A01               	xorlw	1	; case 1
  2628     09FD  1903               	skipnz
  2629     09FE  29E9               	goto	l2726
  2630     09FF  3A03               	xorlw	3	; case 2
  2631     0A00  1903               	skipnz
  2632     0A01  29EE               	goto	l2730
  2633     0A02  3A01               	xorlw	1	; case 3
  2634     0A03  1903               	skipnz
  2635     0A04  29F3               	goto	l2734
  2636     0A05  3A07               	xorlw	7	; case 4
  2637     0A06  1903               	skipnz
  2638     0A07  29F3               	goto	l2734
  2639     0A08  2ABA               	goto	l187
  2640     0A09                     l2742:
  2641                           
  2642                           ;main.c: 335:                  sec =16;
  2643     0A09  301A               	movlw	26
  2644     0A0A  1283               	bcf	3,5	;RP0=0, select bank0
  2645     0A0B  1303               	bcf	3,6	;RP1=0, select bank0
  2646     0A0C  00EB               	movwf	_sec
  2647     0A0D  29CC               	goto	l2712
  2648     0A0E                     l2746:
  2649                           
  2650                           ;main.c: 342:               {
  2651     0A0E  301F               	movlw	31
  2652     0A0F  1283               	bcf	3,5	;RP0=0, select bank0
  2653     0A10  1303               	bcf	3,6	;RP1=0, select bank0
  2654     0A11  00EB               	movwf	_sec
  2655     0A12  29CC               	goto	l2712
  2656     0A13                     l2752:
  2657     0A13  087A               	movf	_water_level_index,w
  2658                           
  2659                           ; Switch size 1, requested type "simple"
  2660                           ; Number of cases is 5, Range of values is 0 to 4
  2661                           ; switch strategies available:
  2662                           ; Name         Instructions Cycles
  2663                           ; simple_byte           16     9 (average)
  2664                           ; direct_byte           23     8 (fixed)
  2665                           ; jumptable            260     6 (fixed)
  2666                           ;	Chosen strategy is simple_byte
  2667     0A14  3A00               	xorlw	0	; case 0
  2668     0A15  1903               	skipnz
  2669     0A16  2A09               	goto	l2742
  2670     0A17  3A01               	xorlw	1	; case 1
  2671     0A18  1903               	skipnz
  2672     0A19  2A09               	goto	l2742
  2673     0A1A  3A03               	xorlw	3	; case 2
  2674     0A1B  1903               	skipnz
  2675     0A1C  2A09               	goto	l2742
  2676     0A1D  3A01               	xorlw	1	; case 3
  2677     0A1E  1903               	skipnz
  2678     0A1F  2A0E               	goto	l2746
  2679     0A20  3A07               	xorlw	7	; case 4
  2680     0A21  1903               	skipnz
  2681     0A22  2A0E               	goto	l2746
  2682     0A23  2ABA               	goto	l187
  2683     0A24                     l2754:
  2684                           
  2685                           ;main.c: 351:                  sec =36;;main.c: 352:                  min =0;
  2686     0A24  3010               	movlw	16
  2687     0A25  1283               	bcf	3,5	;RP0=0, select bank0
  2688     0A26  1303               	bcf	3,6	;RP1=0, select bank0
  2689     0A27  00EB               	movwf	_sec
  2690     0A28                     l2756:
  2691                           
  2692                           ;main.c: 353:                  break;
  2693     0A28  01EC               	clrf	_min
  2694     0A29  0AEC               	incf	_min,f
  2695                           
  2696                           ;main.c: 354: 
  2697     0A2A  2ABA               	goto	l187
  2698     0A2B                     l2758:
  2699                           
  2700                           ;main.c: 359:                  sec =29;;main.c: 360:                  min =0;
  2701     0A2B  3024               	movlw	36
  2702     0A2C  1283               	bcf	3,5	;RP0=0, select bank0
  2703     0A2D  1303               	bcf	3,6	;RP1=0, select bank0
  2704     0A2E  00EB               	movwf	_sec
  2705     0A2F  2A28               	goto	l2756
  2706     0A30                     l2762:
  2707                           
  2708                           ;main.c: 367:                 switch (water_level_index);main.c: 368:               {
  2709     0A30  3024               	movlw	36
  2710     0A31  1283               	bcf	3,5	;RP0=0, select bank0
  2711     0A32  1303               	bcf	3,6	;RP1=0, select bank0
  2712     0A33  00EB               	movwf	_sec
  2713     0A34  29CC               	goto	l2712
  2714     0A35                     l2766:
  2715                           
  2716                           ;main.c: 375:                   case 2:;main.c: 376:                       sec =53;
  2717     0A35  301D               	movlw	29
  2718     0A36  1283               	bcf	3,5	;RP0=0, select bank0
  2719     0A37  1303               	bcf	3,6	;RP1=0, select bank0
  2720     0A38  00EB               	movwf	_sec
  2721     0A39  29CC               	goto	l2712
  2722     0A3A                     l2770:
  2723                           
  2724                           ;main.c: 387:                  }
  2725     0A3A  302E               	movlw	46
  2726     0A3B  1283               	bcf	3,5	;RP0=0, select bank0
  2727     0A3C  1303               	bcf	3,6	;RP1=0, select bank0
  2728     0A3D  00EB               	movwf	_sec
  2729     0A3E  29CC               	goto	l2712
  2730     0A3F                     l2774:
  2731                           
  2732                           ;main.c: 393:           case 8:
  2733     0A3F  3035               	movlw	53
  2734     0A40  1283               	bcf	3,5	;RP0=0, select bank0
  2735     0A41  1303               	bcf	3,6	;RP1=0, select bank0
  2736     0A42  00EB               	movwf	_sec
  2737     0A43  29CC               	goto	l2712
  2738     0A44                     l2778:
  2739                           
  2740                           ;main.c: 400:                       break;
  2741     0A44  1283               	bcf	3,5	;RP0=0, select bank0
  2742     0A45  1303               	bcf	3,6	;RP1=0, select bank0
  2743     0A46  01EB               	clrf	_sec
  2744     0A47  2A28               	goto	l2756
  2745     0A48                     l2784:
  2746     0A48  087A               	movf	_water_level_index,w
  2747                           
  2748                           ; Switch size 1, requested type "simple"
  2749                           ; Number of cases is 5, Range of values is 0 to 4
  2750                           ; switch strategies available:
  2751                           ; Name         Instructions Cycles
  2752                           ; simple_byte           16     9 (average)
  2753                           ; direct_byte           23     8 (fixed)
  2754                           ; jumptable            260     6 (fixed)
  2755                           ;	Chosen strategy is simple_byte
  2756     0A49  3A00               	xorlw	0	; case 0
  2757     0A4A  1903               	skipnz
  2758     0A4B  2A3F               	goto	l2774
  2759     0A4C  3A01               	xorlw	1	; case 1
  2760     0A4D  1903               	skipnz
  2761     0A4E  2A3A               	goto	l2770
  2762     0A4F  3A03               	xorlw	3	; case 2
  2763     0A50  1903               	skipnz
  2764     0A51  2A3F               	goto	l2774
  2765     0A52  3A01               	xorlw	1	; case 3
  2766     0A53  1903               	skipnz
  2767     0A54  2A44               	goto	l2778
  2768     0A55  3A07               	xorlw	7	; case 4
  2769     0A56  1903               	skipnz
  2770     0A57  2A44               	goto	l2778
  2771     0A58  2ABA               	goto	l187
  2772     0A59                     l2786:
  2773                           
  2774                           ;main.c: 415:           case 9:
  2775     0A59  3012               	movlw	18
  2776     0A5A  1283               	bcf	3,5	;RP0=0, select bank0
  2777     0A5B  1303               	bcf	3,6	;RP1=0, select bank0
  2778     0A5C  00EB               	movwf	_sec
  2779     0A5D  29CC               	goto	l2712
  2780     0A5E                     l175:	
  2781                           ;main.c: 421:           case 10:
  2782                           
  2783     0A5E                     l2790:
  2784                           
  2785                           ;main.c: 423:                switch (water_level_index)
  2786     0A5E  3014               	movlw	20
  2787     0A5F  1283               	bcf	3,5	;RP0=0, select bank0
  2788     0A60  1303               	bcf	3,6	;RP1=0, select bank0
  2789     0A61  00EB               	movwf	_sec
  2790     0A62  29CC               	goto	l2712
  2791     0A63                     l2796:
  2792     0A63  087A               	movf	_water_level_index,w
  2793                           
  2794                           ; Switch size 1, requested type "simple"
  2795                           ; Number of cases is 5, Range of values is 0 to 4
  2796                           ; switch strategies available:
  2797                           ; Name         Instructions Cycles
  2798                           ; simple_byte           16     9 (average)
  2799                           ; direct_byte           23     8 (fixed)
  2800                           ; jumptable            260     6 (fixed)
  2801                           ;	Chosen strategy is simple_byte
  2802     0A64  3A00               	xorlw	0	; case 0
  2803     0A65  1903               	skipnz
  2804     0A66  2A5E               	goto	l175
  2805     0A67  3A01               	xorlw	1	; case 1
  2806     0A68  1903               	skipnz
  2807     0A69  2A59               	goto	l2786
  2808     0A6A  3A03               	xorlw	3	; case 2
  2809     0A6B  1903               	skipnz
  2810     0A6C  2A5E               	goto	l2790
  2811     0A6D  3A01               	xorlw	1	; case 3
  2812     0A6E  1903               	skipnz
  2813     0A6F  2A5E               	goto	l2790
  2814     0A70  3A07               	xorlw	7	; case 4
  2815     0A71  1903               	skipnz
  2816     0A72  2A5E               	goto	l2790
  2817     0A73  2ABA               	goto	l187
  2818     0A74                     l2798:
  2819                           
  2820                           ;main.c: 433:                       min =0;;main.c: 434:                       break;
  2821     0A74  3006               	movlw	6
  2822     0A75  1283               	bcf	3,5	;RP0=0, select bank0
  2823     0A76  1303               	bcf	3,6	;RP1=0, select bank0
  2824     0A77  00EB               	movwf	_sec
  2825     0A78  29CC               	goto	l2712
  2826     0A79                     l2802:
  2827                           
  2828                           ;main.c: 443: 
  2829     0A79  3010               	movlw	16
  2830     0A7A  1283               	bcf	3,5	;RP0=0, select bank0
  2831     0A7B  1303               	bcf	3,6	;RP1=0, select bank0
  2832     0A7C  00EB               	movwf	_sec
  2833     0A7D  29CC               	goto	l2712
  2834     0A7E                     l2806:
  2835                           
  2836                           ;main.c: 449: 
  2837     0A7E  3015               	movlw	21
  2838     0A7F  1283               	bcf	3,5	;RP0=0, select bank0
  2839     0A80  1303               	bcf	3,6	;RP1=0, select bank0
  2840     0A81  00EB               	movwf	_sec
  2841     0A82  29CC               	goto	l2712
  2842     0A83                     l2816:
  2843     0A83  087A               	movf	_water_level_index,w
  2844                           
  2845                           ; Switch size 1, requested type "simple"
  2846                           ; Number of cases is 5, Range of values is 0 to 4
  2847                           ; switch strategies available:
  2848                           ; Name         Instructions Cycles
  2849                           ; simple_byte           16     9 (average)
  2850                           ; direct_byte           23     8 (fixed)
  2851                           ; jumptable            260     6 (fixed)
  2852                           ;	Chosen strategy is simple_byte
  2853     0A84  3A00               	xorlw	0	; case 0
  2854     0A85  1903               	skipnz
  2855     0A86  2A7E               	goto	l2806
  2856     0A87  3A01               	xorlw	1	; case 1
  2857     0A88  1903               	skipnz
  2858     0A89  2A79               	goto	l2802
  2859     0A8A  3A03               	xorlw	3	; case 2
  2860     0A8B  1903               	skipnz
  2861     0A8C  2A7E               	goto	l2806
  2862     0A8D  3A01               	xorlw	1	; case 3
  2863     0A8E  1903               	skipnz
  2864     0A8F  2A09               	goto	l2742
  2865     0A90  3A07               	xorlw	7	; case 4
  2866     0A91  1903               	skipnz
  2867     0A92  2A09               	goto	l2742
  2868     0A93  2ABA               	goto	l187
  2869     0A94                     l2820:
  2870     0A94  087B               	movf	_program_no,w
  2871                           
  2872                           ; Switch size 1, requested type "simple"
  2873                           ; Number of cases is 12, Range of values is 0 to 11
  2874                           ; switch strategies available:
  2875                           ; Name         Instructions Cycles
  2876                           ; simple_byte           37    19 (average)
  2877                           ; direct_byte           44     8 (fixed)
  2878                           ; jumptable            260     6 (fixed)
  2879                           ;	Chosen strategy is simple_byte
  2880     0A95  3A00               	xorlw	0	; case 0
  2881     0A96  1903               	skipnz
  2882     0A97  29D8               	goto	l2724
  2883     0A98  3A01               	xorlw	1	; case 1
  2884     0A99  1903               	skipnz
  2885     0A9A  29F8               	goto	l2740
  2886     0A9B  3A03               	xorlw	3	; case 2
  2887     0A9C  1903               	skipnz
  2888     0A9D  2A13               	goto	l2752
  2889     0A9E  3A01               	xorlw	1	; case 3
  2890     0A9F  1903               	skipnz
  2891     0AA0  2A24               	goto	l2754
  2892     0AA1  3A07               	xorlw	7	; case 4
  2893     0AA2  1903               	skipnz
  2894     0AA3  2A2B               	goto	l2758
  2895     0AA4  3A01               	xorlw	1	; case 5
  2896     0AA5  1903               	skipnz
  2897     0AA6  2A30               	goto	l2762
  2898     0AA7  3A03               	xorlw	3	; case 6
  2899     0AA8  1903               	skipnz
  2900     0AA9  2A35               	goto	l2766
  2901     0AAA  3A01               	xorlw	1	; case 7
  2902     0AAB  1903               	skipnz
  2903     0AAC  2A48               	goto	l2784
  2904     0AAD  3A0F               	xorlw	15	; case 8
  2905     0AAE  1903               	skipnz
  2906     0AAF  2A63               	goto	l2796
  2907     0AB0  3A01               	xorlw	1	; case 9
  2908     0AB1  1903               	skipnz
  2909     0AB2  2A74               	goto	l2798
  2910     0AB3  3A03               	xorlw	3	; case 10
  2911     0AB4  1903               	skipnz
  2912     0AB5  2A83               	goto	l2816
  2913     0AB6  3A01               	xorlw	1	; case 11
  2914     0AB7  1903               	skipnz
  2915     0AB8  2A83               	goto	l2816
  2916     0AB9  2ABA               	goto	l187
  2917     0ABA                     l187:
  2918     0ABA  0008               	return
  2919     0ABB                     __end_of_set_time:
  2920                           
  2921                           	psect	text4
  2922     0044                     __ptext4:	
  2923 ;; *************** function _run_program *****************
  2924 ;; Defined at:
  2925 ;;		line 472 in file "main.c"
  2926 ;; Parameters:    Size  Location     Type
  2927 ;;  key             1    wreg     unsigned char 
  2928 ;; Auto vars:     Size  Location     Type
  2929 ;;  key             1   58[BANK0 ] unsigned char 
  2930 ;; Return value:  Size  Location     Type
  2931 ;;                  1    wreg      void 
  2932 ;; Registers used:
  2933 ;;		wreg, fsr0l, fsr0h, status,2, status,0, btemp+1, pclath, cstack
  2934 ;; Tracked objects:
  2935 ;;		On entry : 0/0
  2936 ;;		On exit  : 0/0
  2937 ;;		Unchanged: 0/0
  2938 ;; Data sizes:     COMMON   BANK0   BANK1   BANK3   BANK2
  2939 ;;      Params:         0       0       0       0       0
  2940 ;;      Locals:         0       1       0       0       0
  2941 ;;      Temps:          0       6       0       0       0
  2942 ;;      Totals:         0       7       0       0       0
  2943 ;;Total ram usage:        7 bytes
  2944 ;; Hardware stack levels used: 1
  2945 ;; Hardware stack levels required when called: 4
  2946 ;; This function calls:
  2947 ;;		___awdiv
  2948 ;;		___awmod
  2949 ;;		___flge
  2950 ;;		___flmul
  2951 ;;		___flsub
  2952 ;;		___fltol
  2953 ;;		___wmul
  2954 ;;		___xxtofl
  2955 ;;		_clcd_print
  2956 ;;		_clcd_putch
  2957 ;;		_clear_screen
  2958 ;;		_door_status_check
  2959 ;; This function is called by:
  2960 ;;		_main
  2961 ;; This function uses a non-reentrant model
  2962 ;;
  2963                           
  2964     0044                     _run_program:	
  2965                           ;psect for function _run_program
  2966                           
  2967                           
  2968                           ;incstack = 0
  2969                           ; Regs used in _run_program: [wreg-fsr0h+status,2+status,0+btemp+1+pclath+cstack]
  2970                           ;run_program@key stored from wreg
  2971     0044  1283               	bcf	3,5	;RP0=0, select bank0
  2972     0045  1303               	bcf	3,6	;RP1=0, select bank0
  2973     0046  00DA               	movwf	run_program@key
  2974     0047                     l3428:
  2975                           
  2976                           ;main.c: 472:               clcd_putch((sec%10)+'0' ,(0xC0 + 10));;main.c: 473:         
      +                                clcd_print("(MM:SS)",(0x90 + 5));;main.c: 474: 
  2977     0047  160A  118A  2697  120A  118A  	fcall	_door_status_check
  2978     004C                     l3430:
  2979                           
  2980                           ;main.c: 475:             _delay((unsigned long)((2000)*(20000000/4000.0)));;main.c: 476
      +                          : 
  2981     004C  3012               	movlw	18
  2982     004D  1283               	bcf	3,5	;RP0=0, select bank0
  2983     004E  1303               	bcf	3,6	;RP1=0, select bank0
  2984     004F  066E               	xorwf	_reset_mode,w
  2985     0050  1D03               	btfss	3,2
  2986     0051  2853               	goto	u4501
  2987     0052  2854               	goto	u4500
  2988     0053                     u4501:
  2989     0053  29E8               	goto	l3472
  2990     0054                     u4500:
  2991     0054                     l3432:
  2992                           
  2993                           ;main.c: 477:             clear_screen();;main.c: 478:             clcd_print("Function-
      +                           ",(0x80 + 0));
  2994     0054  160A  118A  2538  120A  118A  	fcall	_clear_screen
  2995     0059                     l3434:
  2996                           
  2997                           ;main.c: 479:             clcd_print("TIME :" ,(0xC0 + 0));
  2998     0059  3051               	movlw	low (STR_28| (0+32768))
  2999     005A  00F6               	movwf	clcd_print@str
  3000     005B  3091               	movlw	high (STR_28| (0+32768))
  3001     005C  00F7               	movwf	clcd_print@str+1
  3002     005D  3080               	movlw	128
  3003     005E  00F8               	movwf	clcd_print@addr
  3004     005F  160A  118A  2615  120A  118A  	fcall	_clcd_print
  3005     0064                     l3436:
  3006                           
  3007                           ;main.c: 480:             clcd_print("5-START 6-PAUSE ",(0xD0 + 0));
  3008     0064  087B               	movf	_program_no,w
  3009     0065  1283               	bcf	3,5	;RP0=0, select bank0
  3010     0066  1303               	bcf	3,6	;RP1=0, select bank0
  3011     0067  00D4               	movwf	??_run_program
  3012     0068  0754               	addwf	??_run_program,w
  3013     0069  3EA0               	addlw	(low (_washing_prog| 0))& (0+255)
  3014     006A  0084               	movwf	4
  3015     006B  1383               	bcf	3,7	;select IRP bank1
  3016     006C  0800               	movf	0,w
  3017     006D  00F6               	movwf	clcd_print@str
  3018     006E  0A84               	incf	4,f
  3019     006F  0800               	movf	0,w
  3020     0070  0384               	decf	4,f
  3021     0071  00F7               	movwf	clcd_print@str+1
  3022     0072  3086               	movlw	134
  3023     0073  00F8               	movwf	clcd_print@addr
  3024     0074  160A  118A  2615  120A  118A  	fcall	_clcd_print
  3025     0079                     l3438:
  3026                           
  3027                           ;main.c: 481: 
  3028     0079  3020               	movlw	low (STR_29| (0+32768))
  3029     007A  00F6               	movwf	clcd_print@str
  3030     007B  3091               	movlw	high (STR_29| (0+32768))
  3031     007C  00F7               	movwf	clcd_print@str+1
  3032     007D  30C0               	movlw	192
  3033     007E  00F8               	movwf	clcd_print@addr
  3034     007F  160A  118A  2615  120A  118A  	fcall	_clcd_print
  3035     0084                     l3440:
  3036                           
  3037                           ;main.c: 485:             time = total_time = (min*60)+sec;
  3038     0084  30C6               	movlw	198
  3039     0085  1283               	bcf	3,5	;RP0=0, select bank0
  3040     0086  1303               	bcf	3,6	;RP1=0, select bank0
  3041     0087  00A0               	movwf	clcd_putch@addr
  3042     0088  300A               	movlw	10
  3043     0089  00F2               	movwf	___awdiv@divisor
  3044     008A  3000               	movlw	0
  3045     008B  00F3               	movwf	___awdiv@divisor+1
  3046     008C  086C               	movf	_min,w
  3047     008D  00D4               	movwf	??_run_program
  3048     008E  01D5               	clrf	??_run_program+1
  3049     008F  0854               	movf	??_run_program,w
  3050     0090  00F4               	movwf	___awdiv@dividend
  3051     0091  0855               	movf	??_run_program+1,w
  3052     0092  00F5               	movwf	___awdiv@dividend+1
  3053     0093  120A  158A  2044  120A  118A  	fcall	___awdiv
  3054     0098  0872               	movf	?___awdiv,w
  3055     0099  3E30               	addlw	48
  3056     009A  160A  118A  2558  120A  118A  	fcall	_clcd_putch
  3057     009F                     l3442:
  3058                           
  3059                           ;main.c: 486:             wash_time = (int)total_time * (0.46);
  3060     009F  30C7               	movlw	199
  3061     00A0  1283               	bcf	3,5	;RP0=0, select bank0
  3062     00A1  1303               	bcf	3,6	;RP1=0, select bank0
  3063     00A2  00A0               	movwf	clcd_putch@addr
  3064     00A3  300A               	movlw	10
  3065     00A4  00F2               	movwf	___awmod@divisor
  3066     00A5  3000               	movlw	0
  3067     00A6  00F3               	movwf	___awmod@divisor+1
  3068     00A7  086C               	movf	_min,w
  3069     00A8  00D4               	movwf	??_run_program
  3070     00A9  01D5               	clrf	??_run_program+1
  3071     00AA  0854               	movf	??_run_program,w
  3072     00AB  00F4               	movwf	___awmod@dividend
  3073     00AC  0855               	movf	??_run_program+1,w
  3074     00AD  00F5               	movwf	___awmod@dividend+1
  3075     00AE  160A  118A  26ED  120A  118A  	fcall	___awmod
  3076     00B3  0872               	movf	?___awmod,w
  3077     00B4  3E30               	addlw	48
  3078     00B5  160A  118A  2558  120A  118A  	fcall	_clcd_putch
  3079     00BA                     l3444:
  3080                           
  3081                           ;main.c: 487:             rinse_time =(int) total_time *(0.12);
  3082     00BA  30C8               	movlw	200
  3083     00BB  1283               	bcf	3,5	;RP0=0, select bank0
  3084     00BC  1303               	bcf	3,6	;RP1=0, select bank0
  3085     00BD  00A0               	movwf	clcd_putch@addr
  3086     00BE  303A               	movlw	58
  3087     00BF  160A  118A  2558  120A  118A  	fcall	_clcd_putch
  3088     00C4                     l3446:
  3089                           
  3090                           ;main.c: 488:             spin_time =total_time-wash_time-rinse_time;
  3091     00C4  30C9               	movlw	201
  3092     00C5  1283               	bcf	3,5	;RP0=0, select bank0
  3093     00C6  1303               	bcf	3,6	;RP1=0, select bank0
  3094     00C7  00A0               	movwf	clcd_putch@addr
  3095     00C8  300A               	movlw	10
  3096     00C9  00F2               	movwf	___awdiv@divisor
  3097     00CA  3000               	movlw	0
  3098     00CB  00F3               	movwf	___awdiv@divisor+1
  3099     00CC  086B               	movf	_sec,w
  3100     00CD  00D4               	movwf	??_run_program
  3101     00CE  01D5               	clrf	??_run_program+1
  3102     00CF  0854               	movf	??_run_program,w
  3103     00D0  00F4               	movwf	___awdiv@dividend
  3104     00D1  0855               	movf	??_run_program+1,w
  3105     00D2  00F5               	movwf	___awdiv@dividend+1
  3106     00D3  120A  158A  2044  120A  118A  	fcall	___awdiv
  3107     00D8  0872               	movf	?___awdiv,w
  3108     00D9  3E30               	addlw	48
  3109     00DA  160A  118A  2558  120A  118A  	fcall	_clcd_putch
  3110     00DF                     l3448:
  3111                           
  3112                           ;main.c: 489: 
  3113     00DF  30CA               	movlw	202
  3114     00E0  1283               	bcf	3,5	;RP0=0, select bank0
  3115     00E1  1303               	bcf	3,6	;RP1=0, select bank0
  3116     00E2  00A0               	movwf	clcd_putch@addr
  3117     00E3  300A               	movlw	10
  3118     00E4  00F2               	movwf	___awmod@divisor
  3119     00E5  3000               	movlw	0
  3120     00E6  00F3               	movwf	___awmod@divisor+1
  3121     00E7  086B               	movf	_sec,w
  3122     00E8  00D4               	movwf	??_run_program
  3123     00E9  01D5               	clrf	??_run_program+1
  3124     00EA  0854               	movf	??_run_program,w
  3125     00EB  00F4               	movwf	___awmod@dividend
  3126     00EC  0855               	movf	??_run_program+1,w
  3127     00ED  00F5               	movwf	___awmod@dividend+1
  3128     00EE  160A  118A  26ED  120A  118A  	fcall	___awmod
  3129     00F3  0872               	movf	?___awmod,w
  3130     00F4  3E30               	addlw	48
  3131     00F5  160A  118A  2558  120A  118A  	fcall	_clcd_putch
  3132                           
  3133                           ;main.c: 490: 
  3134     00FA  3028               	movlw	low (STR_30| (0+32768))
  3135     00FB  00F6               	movwf	clcd_print@str
  3136     00FC  3091               	movlw	high (STR_30| (0+32768))
  3137     00FD  00F7               	movwf	clcd_print@str+1
  3138     00FE  3095               	movlw	149
  3139     00FF  00F8               	movwf	clcd_print@addr
  3140     0100  160A  118A  2615  120A  118A  	fcall	_clcd_print
  3141     0105                     l3450:
  3142                           
  3143                           ;main.c: 492:             RC2 = 1;
  3144     0105  3033               	movlw	51
  3145     0106  1283               	bcf	3,5	;RP0=0, select bank0
  3146     0107  1303               	bcf	3,6	;RP1=0, select bank0
  3147     0108  00D6               	movwf	??_run_program+2
  3148     0109  30BB               	movlw	187
  3149     010A  00D5               	movwf	??_run_program+1
  3150     010B  30DF               	movlw	223
  3151     010C  00D4               	movwf	??_run_program
  3152     010D                     u4717:
  3153     010D  0BD4               	decfsz	??_run_program,f
  3154     010E  290D               	goto	u4717
  3155     010F  0BD5               	decfsz	??_run_program+1,f
  3156     0110  290D               	goto	u4717
  3157     0111  0BD6               	decfsz	??_run_program+2,f
  3158     0112  290D               	goto	u4717
  3159     0113                     l3452:
  3160                           
  3161                           ;main.c: 494:            TMR2ON = 1;
  3162     0113  160A  118A  2538  120A  118A  	fcall	_clear_screen
  3163     0118                     l3454:
  3164                           
  3165                           ;main.c: 495:     }
  3166     0118  309C               	movlw	low (STR_31| (0+32768))
  3167     0119  00F6               	movwf	clcd_print@str
  3168     011A  3090               	movlw	high (STR_31| (0+32768))
  3169     011B  00F7               	movwf	clcd_print@str+1
  3170     011C  3080               	movlw	128
  3171     011D  00F8               	movwf	clcd_print@addr
  3172     011E  160A  118A  2615  120A  118A  	fcall	_clcd_print
  3173     0123                     l3456:
  3174                           
  3175                           ;main.c: 496:     if(key ==0x1F)
  3176     0123  3030               	movlw	low (STR_32| (0+32768))
  3177     0124  00F6               	movwf	clcd_print@str
  3178     0125  3091               	movlw	high (STR_32| (0+32768))
  3179     0126  00F7               	movwf	clcd_print@str+1
  3180     0127  30C0               	movlw	192
  3181     0128  00F8               	movwf	clcd_print@addr
  3182     0129  160A  118A  2615  120A  118A  	fcall	_clcd_print
  3183     012E                     l3458:
  3184                           
  3185                           ;main.c: 497:     {
  3186     012E  3000               	movlw	low (STR_33| (0+32768))
  3187     012F  00F6               	movwf	clcd_print@str
  3188     0130  3090               	movlw	high (STR_33| (0+32768))
  3189     0131  00F7               	movwf	clcd_print@str+1
  3190     0132  30D0               	movlw	208
  3191     0133  00F8               	movwf	clcd_print@addr
  3192     0134  160A  118A  2615  120A  118A  	fcall	_clcd_print
  3193     0139                     l3460:
  3194                           
  3195                           ;main.c: 502: 
  3196     0139  1283               	bcf	3,5	;RP0=0, select bank0
  3197     013A  1303               	bcf	3,6	;RP1=0, select bank0
  3198     013B  086C               	movf	_min,w
  3199     013C  00D4               	movwf	??_run_program
  3200     013D  01D5               	clrf	??_run_program+1
  3201     013E  0854               	movf	??_run_program,w
  3202     013F  00F2               	movwf	___wmul@multiplier
  3203     0140  0855               	movf	??_run_program+1,w
  3204     0141  00F3               	movwf	___wmul@multiplier+1
  3205     0142  303C               	movlw	60
  3206     0143  00F4               	movwf	___wmul@multiplicand
  3207     0144  3000               	movlw	0
  3208     0145  00F5               	movwf	___wmul@multiplicand+1
  3209     0146  120A  118A  27D8  120A  118A  	fcall	___wmul
  3210     014B  1283               	bcf	3,5	;RP0=0, select bank0
  3211     014C  1303               	bcf	3,6	;RP1=0, select bank0
  3212     014D  086B               	movf	_sec,w
  3213     014E  0772               	addwf	?___wmul,w
  3214     014F  00E1               	movwf	run_program@total_time
  3215     0150  3000               	movlw	0
  3216     0151  1803               	skipnc
  3217     0152  3001               	movlw	1
  3218     0153  0773               	addwf	?___wmul+1,w
  3219     0154  00E2               	movwf	run_program@total_time+1
  3220     0155  0862               	movf	run_program@total_time+1,w
  3221     0156  00E0               	movwf	run_program@time+1
  3222     0157  0861               	movf	run_program@total_time,w
  3223     0158  00DF               	movwf	run_program@time
  3224     0159                     l3462:
  3225                           
  3226                           ;main.c: 503:     total_time =(min*60)+sec;
  3227     0159  0861               	movf	run_program@total_time,w
  3228     015A  00F2               	movwf	___xxtofl@val
  3229     015B  0862               	movf	run_program@total_time+1,w
  3230     015C  00F3               	movwf	___xxtofl@val+1
  3231     015D  3000               	movlw	0
  3232     015E  1BF3               	btfsc	___xxtofl@val+1,7
  3233     015F  30FF               	movlw	255
  3234     0160  00F4               	movwf	___xxtofl@val+2
  3235     0161  00F5               	movwf	___xxtofl@val+3
  3236     0162  3001               	movlw	1
  3237     0163  120A  118A  271E  120A  118A  	fcall	___xxtofl
  3238     0168  0875               	movf	?___xxtofl+3,w
  3239     0169  1283               	bcf	3,5	;RP0=0, select bank0
  3240     016A  1303               	bcf	3,6	;RP1=0, select bank0
  3241     016B  00AD               	movwf	___flmul@a+3
  3242     016C  0874               	movf	?___xxtofl+2,w
  3243     016D  00AC               	movwf	___flmul@a+2
  3244     016E  0873               	movf	?___xxtofl+1,w
  3245     016F  00AB               	movwf	___flmul@a+1
  3246     0170  0872               	movf	?___xxtofl,w
  3247     0171  00AA               	movwf	___flmul@a
  3248     0172  303E               	movlw	62
  3249     0173  00A9               	movwf	___flmul@b+3
  3250     0174  30EB               	movlw	235
  3251     0175  00A8               	movwf	___flmul@b+2
  3252     0176  3085               	movlw	133
  3253     0177  00A7               	movwf	___flmul@b+1
  3254     0178  301F               	movlw	31
  3255     0179  00A6               	movwf	___flmul@b
  3256     017A  120A  118A  23D9  120A  118A  	fcall	___flmul
  3257     017F  1283               	bcf	3,5	;RP0=0, select bank0
  3258     0180  1303               	bcf	3,6	;RP1=0, select bank0
  3259     0181  0829               	movf	?___flmul+3,w
  3260     0182  00C3               	movwf	___fltol@f1+3
  3261     0183  0828               	movf	?___flmul+2,w
  3262     0184  00C2               	movwf	___fltol@f1+2
  3263     0185  0827               	movf	?___flmul+1,w
  3264     0186  00C1               	movwf	___fltol@f1+1
  3265     0187  0826               	movf	?___flmul,w
  3266     0188  00C0               	movwf	___fltol@f1
  3267     0189  120A  158A  20AB  120A  118A  	fcall	___fltol
  3268     018E  1283               	bcf	3,5	;RP0=0, select bank0
  3269     018F  1303               	bcf	3,6	;RP1=0, select bank0
  3270     0190  0841               	movf	?___fltol+1,w
  3271     0191  00E6               	movwf	_wash_time+1
  3272     0192  0840               	movf	?___fltol,w
  3273     0193  00E5               	movwf	_wash_time
  3274     0194                     l3464:
  3275                           
  3276                           ;main.c: 504:     if(program_no<= 7)
  3277     0194  0861               	movf	run_program@total_time,w
  3278     0195  00F2               	movwf	___xxtofl@val
  3279     0196  0862               	movf	run_program@total_time+1,w
  3280     0197  00F3               	movwf	___xxtofl@val+1
  3281     0198  3000               	movlw	0
  3282     0199  1BF3               	btfsc	___xxtofl@val+1,7
  3283     019A  30FF               	movlw	255
  3284     019B  00F4               	movwf	___xxtofl@val+2
  3285     019C  00F5               	movwf	___xxtofl@val+3
  3286     019D  3001               	movlw	1
  3287     019E  120A  118A  271E  120A  118A  	fcall	___xxtofl
  3288     01A3  0875               	movf	?___xxtofl+3,w
  3289     01A4  1283               	bcf	3,5	;RP0=0, select bank0
  3290     01A5  1303               	bcf	3,6	;RP1=0, select bank0
  3291     01A6  00AD               	movwf	___flmul@a+3
  3292     01A7  0874               	movf	?___xxtofl+2,w
  3293     01A8  00AC               	movwf	___flmul@a+2
  3294     01A9  0873               	movf	?___xxtofl+1,w
  3295     01AA  00AB               	movwf	___flmul@a+1
  3296     01AB  0872               	movf	?___xxtofl,w
  3297     01AC  00AA               	movwf	___flmul@a
  3298     01AD  303D               	movlw	61
  3299     01AE  00A9               	movwf	___flmul@b+3
  3300     01AF  30F5               	movlw	245
  3301     01B0  00A8               	movwf	___flmul@b+2
  3302     01B1  30C2               	movlw	194
  3303     01B2  00A7               	movwf	___flmul@b+1
  3304     01B3  308F               	movlw	143
  3305     01B4  00A6               	movwf	___flmul@b
  3306     01B5  120A  118A  23D9  120A  118A  	fcall	___flmul
  3307     01BA  1283               	bcf	3,5	;RP0=0, select bank0
  3308     01BB  1303               	bcf	3,6	;RP1=0, select bank0
  3309     01BC  0829               	movf	?___flmul+3,w
  3310     01BD  00C3               	movwf	___fltol@f1+3
  3311     01BE  0828               	movf	?___flmul+2,w
  3312     01BF  00C2               	movwf	___fltol@f1+2
  3313     01C0  0827               	movf	?___flmul+1,w
  3314     01C1  00C1               	movwf	___fltol@f1+1
  3315     01C2  0826               	movf	?___flmul,w
  3316     01C3  00C0               	movwf	___fltol@f1
  3317     01C4  120A  158A  20AB  120A  118A  	fcall	___fltol
  3318     01C9  1283               	bcf	3,5	;RP0=0, select bank0
  3319     01CA  1303               	bcf	3,6	;RP1=0, select bank0
  3320     01CB  0841               	movf	?___fltol+1,w
  3321     01CC  00E8               	movwf	_rinse_time+1
  3322     01CD  0840               	movf	?___fltol,w
  3323     01CE  00E7               	movwf	_rinse_time
  3324     01CF                     l3466:
  3325                           
  3326                           ;main.c: 505:     {
  3327     01CF  0965               	comf	_wash_time,w
  3328     01D0  00D4               	movwf	??_run_program
  3329     01D1  0966               	comf	_wash_time+1,w
  3330     01D2  00D5               	movwf	??_run_program+1
  3331     01D3  0AD4               	incf	??_run_program,f
  3332     01D4  1903               	skipnz
  3333     01D5  0AD5               	incf	??_run_program+1,f
  3334     01D6  0867               	movf	_rinse_time,w
  3335     01D7  0254               	subwf	??_run_program,w
  3336     01D8  00D6               	movwf	??_run_program+2
  3337     01D9  0868               	movf	_rinse_time+1,w
  3338     01DA  1C03               	skipc
  3339     01DB  0A68               	incf	_rinse_time+1,w
  3340     01DC  0255               	subwf	??_run_program+1,w
  3341     01DD  00D7               	movwf	??_run_program+3
  3342     01DE  0861               	movf	run_program@total_time,w
  3343     01DF  0756               	addwf	??_run_program+2,w
  3344     01E0  00E3               	movwf	_spin_time
  3345     01E1  0862               	movf	run_program@total_time+1,w
  3346     01E2  1803               	skipnc
  3347     01E3  0A62               	incf	run_program@total_time+1,w
  3348     01E4  0757               	addwf	??_run_program+3,w
  3349     01E5  00E4               	movwf	_spin_time+1
  3350     01E6                     l3468:
  3351                           
  3352                           ;main.c: 509: 
  3353     01E6  1507               	bsf	7,2	;volatile
  3354     01E7                     l3470:
  3355                           
  3356                           ;main.c: 511:         else if (total_time >= (time-wash_time - spin_time))
  3357     01E7  1512               	bsf	18,2	;volatile
  3358     01E8                     l3472:
  3359                           
  3360                           ;main.c: 513:           clcd_print("Rinse", (0x80 + 11));
  3361     01E8  301F               	movlw	31
  3362     01E9  065A               	xorwf	run_program@key,w
  3363     01EA  1D03               	btfss	3,2
  3364     01EB  29ED               	goto	u4511
  3365     01EC  29EE               	goto	u4510
  3366     01ED                     u4511:
  3367     01ED  29F2               	goto	l3478
  3368     01EE                     u4510:
  3369     01EE                     l3474:
  3370                           
  3371                           ;main.c: 514:         };main.c: 515:         else
  3372     01EE  1107               	bcf	7,2	;volatile
  3373                           
  3374                           ;main.c: 516:         {
  3375     01EF  1112               	bcf	18,2	;volatile
  3376     01F0                     l3476:
  3377                           
  3378                           ;main.c: 517:             clcd_print ("Spin ",(0x80 + 11));
  3379     01F0  3005               	movlw	5
  3380     01F1  00EF               	movwf	_operation_mode
  3381     01F2                     l3478:
  3382                           
  3383                           ;main.c: 520:     else if(program_no == 8)
  3384     01F2  086C               	movf	_min,w
  3385     01F3  00D4               	movwf	??_run_program
  3386     01F4  01D5               	clrf	??_run_program+1
  3387     01F5  0854               	movf	??_run_program,w
  3388     01F6  00F2               	movwf	___wmul@multiplier
  3389     01F7  0855               	movf	??_run_program+1,w
  3390     01F8  00F3               	movwf	___wmul@multiplier+1
  3391     01F9  303C               	movlw	60
  3392     01FA  00F4               	movwf	___wmul@multiplicand
  3393     01FB  3000               	movlw	0
  3394     01FC  00F5               	movwf	___wmul@multiplicand+1
  3395     01FD  120A  118A  27D8  120A  118A  	fcall	___wmul
  3396     0202  1283               	bcf	3,5	;RP0=0, select bank0
  3397     0203  1303               	bcf	3,6	;RP1=0, select bank0
  3398     0204  086B               	movf	_sec,w
  3399     0205  0772               	addwf	?___wmul,w
  3400     0206  00E1               	movwf	run_program@total_time
  3401     0207  3000               	movlw	0
  3402     0208  1803               	skipnc
  3403     0209  3001               	movlw	1
  3404     020A  0773               	addwf	?___wmul+1,w
  3405     020B  00E2               	movwf	run_program@total_time+1
  3406     020C                     l3480:
  3407                           
  3408                           ;main.c: 521:     {
  3409     020C  3008               	movlw	8
  3410     020D  027B               	subwf	_program_no,w
  3411     020E  1803               	skipnc
  3412     020F  2A11               	goto	u4521
  3413     0210  2A12               	goto	u4520
  3414     0211                     u4521:
  3415     0211  2A69               	goto	l3492
  3416     0212                     u4520:
  3417     0212                     l3482:
  3418                           
  3419                           ;main.c: 522:         if (total_time >= (time -(0.40 *time)));main.c: 523:         {
  3420     0212  0865               	movf	_wash_time,w
  3421     0213  025F               	subwf	run_program@time,w
  3422     0214  00D4               	movwf	??_run_program
  3423     0215  0866               	movf	_wash_time+1,w
  3424     0216  1C03               	skipc
  3425     0217  0A66               	incf	_wash_time+1,w
  3426     0218  0260               	subwf	run_program@time+1,w
  3427     0219  00D5               	movwf	??_run_program+1
  3428     021A  0855               	movf	??_run_program+1,w
  3429     021B  0262               	subwf	run_program@total_time+1,w
  3430     021C  1D03               	skipz
  3431     021D  2A20               	goto	u4535
  3432     021E  0854               	movf	??_run_program,w
  3433     021F  0261               	subwf	run_program@total_time,w
  3434     0220                     u4535:
  3435     0220  1C03               	skipc
  3436     0221  2A23               	goto	u4531
  3437     0222  2A24               	goto	u4530
  3438     0223                     u4531:
  3439     0223  2A30               	goto	l3486
  3440     0224                     u4530:
  3441     0224                     l3484:
  3442                           
  3443                           ;main.c: 524:              clcd_print("Rinse", (0x80 + 11));;main.c: 525:         }
  3444     0224  3045               	movlw	low (STR_34| (0+32768))
  3445     0225  00F6               	movwf	clcd_print@str
  3446     0226  3091               	movlw	high (STR_34| (0+32768))
  3447     0227  00F7               	movwf	clcd_print@str+1
  3448     0228  308B               	movlw	139
  3449     0229  00F8               	movwf	clcd_print@addr
  3450     022A  160A  118A  2615  120A  118A  	fcall	_clcd_print
  3451                           
  3452                           ;main.c: 527:         {
  3453     022F  2B1E               	goto	l3506
  3454     0230                     l3486:
  3455     0230  0965               	comf	_wash_time,w
  3456     0231  00D4               	movwf	??_run_program
  3457     0232  0966               	comf	_wash_time+1,w
  3458     0233  00D5               	movwf	??_run_program+1
  3459     0234  0AD4               	incf	??_run_program,f
  3460     0235  1903               	skipnz
  3461     0236  0AD5               	incf	??_run_program+1,f
  3462     0237  0863               	movf	_spin_time,w
  3463     0238  0254               	subwf	??_run_program,w
  3464     0239  00D6               	movwf	??_run_program+2
  3465     023A  0864               	movf	_spin_time+1,w
  3466     023B  1C03               	skipc
  3467     023C  0A64               	incf	_spin_time+1,w
  3468     023D  0255               	subwf	??_run_program+1,w
  3469     023E  00D7               	movwf	??_run_program+3
  3470     023F  085F               	movf	run_program@time,w
  3471     0240  0756               	addwf	??_run_program+2,w
  3472     0241  00D8               	movwf	??_run_program+4
  3473     0242  0860               	movf	run_program@time+1,w
  3474     0243  1803               	skipnc
  3475     0244  0A60               	incf	run_program@time+1,w
  3476     0245  0757               	addwf	??_run_program+3,w
  3477     0246  00D9               	movwf	??_run_program+5
  3478     0247  0859               	movf	??_run_program+5,w
  3479     0248  0262               	subwf	run_program@total_time+1,w
  3480     0249  1D03               	skipz
  3481     024A  2A4D               	goto	u4545
  3482     024B  0858               	movf	??_run_program+4,w
  3483     024C  0261               	subwf	run_program@total_time,w
  3484     024D                     u4545:
  3485     024D  1C03               	skipc
  3486     024E  2A50               	goto	u4541
  3487     024F  2A51               	goto	u4540
  3488     0250                     u4541:
  3489     0250  2A5D               	goto	l3490
  3490     0251                     u4540:
  3491     0251                     l3488:
  3492                           
  3493                           ;main.c: 529:         };main.c: 530:     }
  3494     0251  3057               	movlw	low (STR_35| (0+32768))
  3495     0252  00F6               	movwf	clcd_print@str
  3496     0253  3091               	movlw	high (STR_35| (0+32768))
  3497     0254  00F7               	movwf	clcd_print@str+1
  3498     0255  308B               	movlw	139
  3499     0256  00F8               	movwf	clcd_print@addr
  3500     0257  160A  118A  2615  120A  118A  	fcall	_clcd_print
  3501                           
  3502                           ;main.c: 531:     else if (program_no == 9)
  3503     025C  2B1E               	goto	l3506
  3504     025D                     l3490:
  3505                           
  3506                           ;main.c: 533:         clcd_print ("Spin ",(0x80 + 11));;main.c: 534:     }
  3507     025D  304B               	movlw	low (STR_36| (0+32768))
  3508     025E  00F6               	movwf	clcd_print@str
  3509     025F  3091               	movlw	high (STR_36| (0+32768))
  3510     0260  00F7               	movwf	clcd_print@str+1
  3511     0261  308B               	movlw	139
  3512     0262  00F8               	movwf	clcd_print@addr
  3513     0263  160A  118A  2615  120A  118A  	fcall	_clcd_print
  3514     0268  2B1E               	goto	l3506
  3515     0269                     l3492:
  3516     0269  3008               	movlw	8
  3517     026A  067B               	xorwf	_program_no,w
  3518     026B  1D03               	btfss	3,2
  3519     026C  2A6E               	goto	u4551
  3520     026D  2A6F               	goto	u4550
  3521     026E                     u4551:
  3522     026E  2B01               	goto	l3500
  3523     026F                     u4550:
  3524     026F                     l3494:
  3525                           
  3526                           ;main.c: 538: ;main.c: 539:     }
  3527     026F  0861               	movf	run_program@total_time,w
  3528     0270  00F2               	movwf	___xxtofl@val
  3529     0271  0862               	movf	run_program@total_time+1,w
  3530     0272  00F3               	movwf	___xxtofl@val+1
  3531     0273  3000               	movlw	0
  3532     0274  1BF3               	btfsc	___xxtofl@val+1,7
  3533     0275  30FF               	movlw	255
  3534     0276  00F4               	movwf	___xxtofl@val+2
  3535     0277  00F5               	movwf	___xxtofl@val+3
  3536     0278  3001               	movlw	1
  3537     0279  120A  118A  271E  120A  118A  	fcall	___xxtofl
  3538     027E  0875               	movf	?___xxtofl+3,w
  3539     027F  1283               	bcf	3,5	;RP0=0, select bank0
  3540     0280  1303               	bcf	3,6	;RP1=0, select bank0
  3541     0281  00CB               	movwf	___flge@ff1+3
  3542     0282  0874               	movf	?___xxtofl+2,w
  3543     0283  00CA               	movwf	___flge@ff1+2
  3544     0284  0873               	movf	?___xxtofl+1,w
  3545     0285  00C9               	movwf	___flge@ff1+1
  3546     0286  0872               	movf	?___xxtofl,w
  3547     0287  00C8               	movwf	___flge@ff1
  3548     0288  085F               	movf	run_program@time,w
  3549     0289  00F2               	movwf	___xxtofl@val
  3550     028A  0860               	movf	run_program@time+1,w
  3551     028B  00F3               	movwf	___xxtofl@val+1
  3552     028C  3000               	movlw	0
  3553     028D  1BF3               	btfsc	___xxtofl@val+1,7
  3554     028E  30FF               	movlw	255
  3555     028F  00F4               	movwf	___xxtofl@val+2
  3556     0290  00F5               	movwf	___xxtofl@val+3
  3557     0291  3001               	movlw	1
  3558     0292  120A  118A  271E  120A  118A  	fcall	___xxtofl
  3559     0297  0875               	movf	?___xxtofl+3,w
  3560     0298  1283               	bcf	3,5	;RP0=0, select bank0
  3561     0299  1303               	bcf	3,6	;RP1=0, select bank0
  3562     029A  00C7               	movwf	___flsub@b+3
  3563     029B  0874               	movf	?___xxtofl+2,w
  3564     029C  00C6               	movwf	___flsub@b+2
  3565     029D  0873               	movf	?___xxtofl+1,w
  3566     029E  00C5               	movwf	___flsub@b+1
  3567     029F  0872               	movf	?___xxtofl,w
  3568     02A0  00C4               	movwf	___flsub@b
  3569     02A1  085F               	movf	run_program@time,w
  3570     02A2  00F2               	movwf	___xxtofl@val
  3571     02A3  0860               	movf	run_program@time+1,w
  3572     02A4  00F3               	movwf	___xxtofl@val+1
  3573     02A5  3000               	movlw	0
  3574     02A6  1BF3               	btfsc	___xxtofl@val+1,7
  3575     02A7  30FF               	movlw	255
  3576     02A8  00F4               	movwf	___xxtofl@val+2
  3577     02A9  00F5               	movwf	___xxtofl@val+3
  3578     02AA  3001               	movlw	1
  3579     02AB  120A  118A  271E  120A  118A  	fcall	___xxtofl
  3580     02B0  0875               	movf	?___xxtofl+3,w
  3581     02B1  1283               	bcf	3,5	;RP0=0, select bank0
  3582     02B2  1303               	bcf	3,6	;RP1=0, select bank0
  3583     02B3  00AD               	movwf	___flmul@a+3
  3584     02B4  0874               	movf	?___xxtofl+2,w
  3585     02B5  00AC               	movwf	___flmul@a+2
  3586     02B6  0873               	movf	?___xxtofl+1,w
  3587     02B7  00AB               	movwf	___flmul@a+1
  3588     02B8  0872               	movf	?___xxtofl,w
  3589     02B9  00AA               	movwf	___flmul@a
  3590     02BA  303E               	movlw	62
  3591     02BB  00A9               	movwf	___flmul@b+3
  3592     02BC  30CC               	movlw	204
  3593     02BD  00A8               	movwf	___flmul@b+2
  3594     02BE  30CC               	movlw	204
  3595     02BF  00A7               	movwf	___flmul@b+1
  3596     02C0  30CD               	movlw	205
  3597     02C1  00A6               	movwf	___flmul@b
  3598     02C2  120A  118A  23D9  120A  118A  	fcall	___flmul
  3599     02C7  1283               	bcf	3,5	;RP0=0, select bank0
  3600     02C8  1303               	bcf	3,6	;RP1=0, select bank0
  3601     02C9  0829               	movf	?___flmul+3,w
  3602     02CA  00C3               	movwf	___flsub@a+3
  3603     02CB  0828               	movf	?___flmul+2,w
  3604     02CC  00C2               	movwf	___flsub@a+2
  3605     02CD  0827               	movf	?___flmul+1,w
  3606     02CE  00C1               	movwf	___flsub@a+1
  3607     02CF  0826               	movf	?___flmul,w
  3608     02D0  00C0               	movwf	___flsub@a
  3609     02D1  160A  118A  25C8  120A  118A  	fcall	___flsub
  3610     02D6  1283               	bcf	3,5	;RP0=0, select bank0
  3611     02D7  1303               	bcf	3,6	;RP1=0, select bank0
  3612     02D8  0843               	movf	?___flsub+3,w
  3613     02D9  00CF               	movwf	___flge@ff2+3
  3614     02DA  0842               	movf	?___flsub+2,w
  3615     02DB  00CE               	movwf	___flge@ff2+2
  3616     02DC  0841               	movf	?___flsub+1,w
  3617     02DD  00CD               	movwf	___flge@ff2+1
  3618     02DE  0840               	movf	?___flsub,w
  3619     02DF  00CC               	movwf	___flge@ff2
  3620     02E0  120A  158A  2123  120A  118A  	fcall	___flge
  3621     02E5  1C03               	btfss	3,0
  3622     02E6  2AE8               	goto	u4561
  3623     02E7  2AE9               	goto	u4560
  3624     02E8                     u4561:
  3625     02E8  2AF5               	goto	l3498
  3626     02E9                     u4560:
  3627     02E9                     l3496:
  3628                           
  3629                           ;main.c: 540:      clcd_putch((min/10)+'0' ,(0xC0 + 6));;main.c: 541:      clcd_putch((m
      +                          in%10)+'0' ,(0xC0 + 7));
  3630     02E9  3057               	movlw	low (STR_35| (0+32768))
  3631     02EA  00F6               	movwf	clcd_print@str
  3632     02EB  3091               	movlw	high (STR_35| (0+32768))
  3633     02EC  00F7               	movwf	clcd_print@str+1
  3634     02ED  308B               	movlw	139
  3635     02EE  00F8               	movwf	clcd_print@addr
  3636     02EF  160A  118A  2615  120A  118A  	fcall	_clcd_print
  3637                           
  3638                           ;main.c: 542:      clcd_putch(':' ,(0xC0 + 8));
  3639     02F4  2B1E               	goto	l3506
  3640     02F5                     l3498:
  3641                           
  3642                           ;main.c: 544:      clcd_putch((sec%10)+'0' ,(0xC0 + 10));;main.c: 545: 
  3643     02F5  304B               	movlw	low (STR_36| (0+32768))
  3644     02F6  00F6               	movwf	clcd_print@str
  3645     02F7  3091               	movlw	high (STR_36| (0+32768))
  3646     02F8  00F7               	movwf	clcd_print@str+1
  3647     02F9  308B               	movlw	139
  3648     02FA  00F8               	movwf	clcd_print@addr
  3649     02FB  160A  118A  2615  120A  118A  	fcall	_clcd_print
  3650     0300  2B1E               	goto	l3506
  3651     0301                     l3500:
  3652     0301  3009               	movlw	9
  3653     0302  067B               	xorwf	_program_no,w
  3654     0303  1D03               	btfss	3,2
  3655     0304  2B06               	goto	u4571
  3656     0305  2B07               	goto	u4570
  3657     0306                     u4571:
  3658     0306  2B13               	goto	l3504
  3659     0307                     u4570:
  3660     0307                     l3502:
  3661                           
  3662                           ;main.c: 549: ;main.c: 550:            TMR2ON = 0;
  3663     0307  304B               	movlw	low (STR_36| (0+32768))
  3664     0308  00F6               	movwf	clcd_print@str
  3665     0309  3091               	movlw	high (STR_36| (0+32768))
  3666     030A  00F7               	movwf	clcd_print@str+1
  3667     030B  308B               	movlw	139
  3668     030C  00F8               	movwf	clcd_print@addr
  3669     030D  160A  118A  2615  120A  118A  	fcall	_clcd_print
  3670                           
  3671                           ;main.c: 551: 
  3672     0312  2B1E               	goto	l3506
  3673     0313                     l3504:
  3674                           
  3675                           ;main.c: 553:            clear_screen();;main.c: 554:            clcd_print("prog.comple
      +                          ted", (0x80 + 0));
  3676     0313  3045               	movlw	low (STR_34| (0+32768))
  3677     0314  00F6               	movwf	clcd_print@str
  3678     0315  3091               	movlw	high (STR_34| (0+32768))
  3679     0316  00F7               	movwf	clcd_print@str+1
  3680     0317  308B               	movlw	139
  3681     0318  00F8               	movwf	clcd_print@addr
  3682     0319  160A  118A  2615  120A  118A  	fcall	_clcd_print
  3683     031E                     l3506:
  3684                           
  3685                           ;main.c: 557:             RC1 = 0;
  3686     031E  30C6               	movlw	198
  3687     031F  1283               	bcf	3,5	;RP0=0, select bank0
  3688     0320  1303               	bcf	3,6	;RP1=0, select bank0
  3689     0321  00A0               	movwf	clcd_putch@addr
  3690     0322  300A               	movlw	10
  3691     0323  00F2               	movwf	___awdiv@divisor
  3692     0324  3000               	movlw	0
  3693     0325  00F3               	movwf	___awdiv@divisor+1
  3694     0326  086C               	movf	_min,w
  3695     0327  00D4               	movwf	??_run_program
  3696     0328  01D5               	clrf	??_run_program+1
  3697     0329  0854               	movf	??_run_program,w
  3698     032A  00F4               	movwf	___awdiv@dividend
  3699     032B  0855               	movf	??_run_program+1,w
  3700     032C  00F5               	movwf	___awdiv@dividend+1
  3701     032D  120A  158A  2044  120A  118A  	fcall	___awdiv
  3702     0332  0872               	movf	?___awdiv,w
  3703     0333  3E30               	addlw	48
  3704     0334  160A  118A  2558  120A  118A  	fcall	_clcd_putch
  3705     0339                     l3508:
  3706                           
  3707                           ;main.c: 558:             operation_mode = 0x01 ;
  3708     0339  30C7               	movlw	199
  3709     033A  1283               	bcf	3,5	;RP0=0, select bank0
  3710     033B  1303               	bcf	3,6	;RP1=0, select bank0
  3711     033C  00A0               	movwf	clcd_putch@addr
  3712     033D  300A               	movlw	10
  3713     033E  00F2               	movwf	___awmod@divisor
  3714     033F  3000               	movlw	0
  3715     0340  00F3               	movwf	___awmod@divisor+1
  3716     0341  086C               	movf	_min,w
  3717     0342  00D4               	movwf	??_run_program
  3718     0343  01D5               	clrf	??_run_program+1
  3719     0344  0854               	movf	??_run_program,w
  3720     0345  00F4               	movwf	___awmod@dividend
  3721     0346  0855               	movf	??_run_program+1,w
  3722     0347  00F5               	movwf	___awmod@dividend+1
  3723     0348  160A  118A  26ED  120A  118A  	fcall	___awmod
  3724     034D  0872               	movf	?___awmod,w
  3725     034E  3E30               	addlw	48
  3726     034F  160A  118A  2558  120A  118A  	fcall	_clcd_putch
  3727     0354                     l3510:
  3728                           
  3729                           ;main.c: 559:             reset_mode = 0x10;
  3730     0354  30C8               	movlw	200
  3731     0355  1283               	bcf	3,5	;RP0=0, select bank0
  3732     0356  1303               	bcf	3,6	;RP1=0, select bank0
  3733     0357  00A0               	movwf	clcd_putch@addr
  3734     0358  303A               	movlw	58
  3735     0359  160A  118A  2558  120A  118A  	fcall	_clcd_putch
  3736     035E                     l3512:
  3737                           
  3738                           ;main.c: 560:             clear_screen();
  3739     035E  30C9               	movlw	201
  3740     035F  1283               	bcf	3,5	;RP0=0, select bank0
  3741     0360  1303               	bcf	3,6	;RP1=0, select bank0
  3742     0361  00A0               	movwf	clcd_putch@addr
  3743     0362  300A               	movlw	10
  3744     0363  00F2               	movwf	___awdiv@divisor
  3745     0364  3000               	movlw	0
  3746     0365  00F3               	movwf	___awdiv@divisor+1
  3747     0366  086B               	movf	_sec,w
  3748     0367  00D4               	movwf	??_run_program
  3749     0368  01D5               	clrf	??_run_program+1
  3750     0369  0854               	movf	??_run_program,w
  3751     036A  00F4               	movwf	___awdiv@dividend
  3752     036B  0855               	movf	??_run_program+1,w
  3753     036C  00F5               	movwf	___awdiv@dividend+1
  3754     036D  120A  158A  2044  120A  118A  	fcall	___awdiv
  3755     0372  0872               	movf	?___awdiv,w
  3756     0373  3E30               	addlw	48
  3757     0374  160A  118A  2558  120A  118A  	fcall	_clcd_putch
  3758     0379                     l3514:
  3759                           
  3760                           ;main.c: 561:      }
  3761     0379  30CA               	movlw	202
  3762     037A  1283               	bcf	3,5	;RP0=0, select bank0
  3763     037B  1303               	bcf	3,6	;RP1=0, select bank0
  3764     037C  00A0               	movwf	clcd_putch@addr
  3765     037D  300A               	movlw	10
  3766     037E  00F2               	movwf	___awmod@divisor
  3767     037F  3000               	movlw	0
  3768     0380  00F3               	movwf	___awmod@divisor+1
  3769     0381  086B               	movf	_sec,w
  3770     0382  00D4               	movwf	??_run_program
  3771     0383  01D5               	clrf	??_run_program+1
  3772     0384  0854               	movf	??_run_program,w
  3773     0385  00F4               	movwf	___awmod@dividend
  3774     0386  0855               	movf	??_run_program+1,w
  3775     0387  00F5               	movwf	___awmod@dividend+1
  3776     0388  160A  118A  26ED  120A  118A  	fcall	___awmod
  3777     038D  0872               	movf	?___awmod,w
  3778     038E  3E30               	addlw	48
  3779     038F  160A  118A  2558  120A  118A  	fcall	_clcd_putch
  3780     0394                     l3516:
  3781                           
  3782                           ;main.c: 563: 
  3783     0394  1283               	bcf	3,5	;RP0=0, select bank0
  3784     0395  1303               	bcf	3,6	;RP1=0, select bank0
  3785     0396  086B               	movf	_sec,w
  3786     0397  1D03               	btfss	3,2
  3787     0398  2B9A               	goto	u4581
  3788     0399  2B9B               	goto	u4580
  3789     039A                     u4581:
  3790     039A  2BD8               	goto	l209
  3791     039B                     u4580:
  3792     039B                     l3518:
  3793     039B  086C               	movf	_min,w
  3794     039C  1D03               	btfss	3,2
  3795     039D  2B9F               	goto	u4591
  3796     039E  2BA0               	goto	u4590
  3797     039F                     u4591:
  3798     039F  2BD8               	goto	l209
  3799     03A0                     u4590:
  3800     03A0                     l3520:
  3801                           
  3802                           ;main.c: 564: };main.c: 565: void door_status_check(void)
  3803     03A0  1107               	bcf	7,2	;volatile
  3804                           
  3805                           ;main.c: 567:   if(RB0 == 0)
  3806     03A1  1112               	bcf	18,2	;volatile
  3807                           
  3808                           ;main.c: 569: 
  3809     03A2  1487               	bsf	7,1	;volatile
  3810     03A3                     l3522:
  3811                           
  3812                           ;main.c: 570: 
  3813     03A3  160A  118A  2538  120A  118A  	fcall	_clear_screen
  3814     03A8                     l3524:
  3815                           
  3816                           ;main.c: 571:       RC2=0;
  3817     03A8  3031               	movlw	low (STR_41| (0+32768))
  3818     03A9  00F6               	movwf	clcd_print@str
  3819     03AA  3090               	movlw	high (STR_41| (0+32768))
  3820     03AB  00F7               	movwf	clcd_print@str+1
  3821     03AC  3080               	movlw	128
  3822     03AD  00F8               	movwf	clcd_print@addr
  3823     03AE  160A  118A  2615  120A  118A  	fcall	_clcd_print
  3824     03B3                     l3526:
  3825                           
  3826                           ;main.c: 572:       TMR2ON =0;
  3827     03B3  3040               	movlw	low (STR_42| (0+32768))
  3828     03B4  00F6               	movwf	clcd_print@str
  3829     03B5  3090               	movlw	high (STR_42| (0+32768))
  3830     03B6  00F7               	movwf	clcd_print@str+1
  3831     03B7  30C0               	movlw	192
  3832     03B8  00F8               	movwf	clcd_print@addr
  3833     03B9  160A  118A  2615  120A  118A  	fcall	_clcd_print
  3834     03BE                     l3528:
  3835                           
  3836                           ;main.c: 573:       RC1 =1;
  3837     03BE  3033               	movlw	51
  3838     03BF  1283               	bcf	3,5	;RP0=0, select bank0
  3839     03C0  1303               	bcf	3,6	;RP1=0, select bank0
  3840     03C1  00D6               	movwf	??_run_program+2
  3841     03C2  30BB               	movlw	187
  3842     03C3  00D5               	movwf	??_run_program+1
  3843     03C4  30DF               	movlw	223
  3844     03C5  00D4               	movwf	??_run_program
  3845     03C6                     u4727:
  3846     03C6  0BD4               	decfsz	??_run_program,f
  3847     03C7  2BC6               	goto	u4727
  3848     03C8  0BD5               	decfsz	??_run_program+1,f
  3849     03C9  2BC6               	goto	u4727
  3850     03CA  0BD6               	decfsz	??_run_program+2,f
  3851     03CB  2BC6               	goto	u4727
  3852     03CC                     l3530:
  3853                           
  3854                           ;main.c: 574:       clear_screen();
  3855     03CC  1283               	bcf	3,5	;RP0=0, select bank0
  3856     03CD  1303               	bcf	3,6	;RP1=0, select bank0
  3857     03CE  1087               	bcf	7,1	;volatile
  3858     03CF                     l3532:
  3859                           
  3860                           ;main.c: 575:       clcd_print("door : open", (0x80 + 0));
  3861     03CF  01EF               	clrf	_operation_mode
  3862     03D0  0AEF               	incf	_operation_mode,f
  3863     03D1                     l3534:
  3864                           
  3865                           ;main.c: 576:       clcd_print("please close", (0x90 + 0));
  3866     03D1  3010               	movlw	16
  3867     03D2  00EE               	movwf	_reset_mode
  3868                           
  3869                           ;main.c: 577: 
  3870     03D3  160A  118A  2538  120A  118A  	fcall	_clear_screen
  3871     03D8                     l209:
  3872     03D8  0008               	return
  3873     03D9                     __end_of_run_program:
  3874                           
  3875                           	psect	text5
  3876     1697                     __ptext5:	
  3877 ;; *************** function _door_status_check *****************
  3878 ;; Defined at:
  3879 ;;		line 582 in file "main.c"
  3880 ;; Parameters:    Size  Location     Type
  3881 ;;		None
  3882 ;; Auto vars:     Size  Location     Type
  3883 ;;		None
  3884 ;; Return value:  Size  Location     Type
  3885 ;;                  1    wreg      void 
  3886 ;; Registers used:
  3887 ;;		wreg, fsr0l, fsr0h, status,2, status,0, btemp+1, pclath, cstack
  3888 ;; Tracked objects:
  3889 ;;		On entry : 0/0
  3890 ;;		On exit  : 0/0
  3891 ;;		Unchanged: 0/0
  3892 ;; Data sizes:     COMMON   BANK0   BANK1   BANK3   BANK2
  3893 ;;      Params:         0       0       0       0       0
  3894 ;;      Locals:         0       0       0       0       0
  3895 ;;      Temps:          0       0       0       0       0
  3896 ;;      Totals:         0       0       0       0       0
  3897 ;;Total ram usage:        0 bytes
  3898 ;; Hardware stack levels used: 1
  3899 ;; Hardware stack levels required when called: 3
  3900 ;; This function calls:
  3901 ;;		_clcd_print
  3902 ;;		_clear_screen
  3903 ;; This function is called by:
  3904 ;;		_run_program
  3905 ;; This function uses a non-reentrant model
  3906 ;;
  3907                           
  3908     1697                     _door_status_check:	
  3909                           ;psect for function _door_status_check
  3910                           
  3911     1697                     l3156:	
  3912                           ;incstack = 0
  3913                           ; Regs used in _door_status_check: [wreg-fsr0h+status,2+status,0+btemp+1+pclath+cstack]
  3914                           
  3915                           
  3916                           ;main.c: 584:       clcd_print("TIME :" ,(0xC0 + 0));
  3917     1697  1283               	bcf	3,5	;RP0=0, select bank0
  3918     1698  1303               	bcf	3,6	;RP1=0, select bank0
  3919     1699  1806               	btfsc	6,0	;volatile
  3920     169A  2E9C               	goto	u3971
  3921     169B  2E9D               	goto	u3970
  3922     169C                     u3971:
  3923     169C  2EEC               	goto	l216
  3924     169D                     u3970:
  3925     169D                     l3158:
  3926                           
  3927                           ;main.c: 585:       clcd_print("5-START 6-PAUSE ",(0xD0 + 0));;main.c: 588: 
  3928     169D  1107               	bcf	7,2	;volatile
  3929                           
  3930                           ;main.c: 589:       TMR2ON = 1;
  3931     169E  1112               	bcf	18,2	;volatile
  3932                           
  3933                           ;main.c: 590:       RC1 =0;
  3934     169F  1487               	bsf	7,1	;volatile
  3935     16A0                     l3160:
  3936                           
  3937                           ;main.c: 591: 
  3938     16A0  160A  118A  2538  160A  118A  	fcall	_clear_screen
  3939     16A5                     l3162:
  3940                           
  3941                           ;main.c: 592: 
  3942     16A5  3090               	movlw	low (STR_43| (0+32768))
  3943     16A6  00F6               	movwf	clcd_print@str
  3944     16A7  3090               	movlw	high (STR_43| (0+32768))
  3945     16A8  00F7               	movwf	clcd_print@str+1
  3946     16A9  3080               	movlw	128
  3947     16AA  00F8               	movwf	clcd_print@addr
  3948     16AB  160A  118A  2615  160A  118A  	fcall	_clcd_print
  3949     16B0                     l3164:
  3950                           
  3951                           ;main.c: 593:   }
  3952     16B0  306A               	movlw	low (STR_44| (0+32768))
  3953     16B1  00F6               	movwf	clcd_print@str
  3954     16B2  3090               	movlw	high (STR_44| (0+32768))
  3955     16B3  00F7               	movwf	clcd_print@str+1
  3956     16B4  3090               	movlw	144
  3957     16B5  00F8               	movwf	clcd_print@addr
  3958     16B6  160A  118A  2615  160A  118A  	fcall	_clcd_print
  3959     16BB                     l213:	
  3960                           ;main.c: 595: }
  3961                           
  3962                           
  3963                           ;main.c: 595: }
  3964     16BB  1283               	bcf	3,5	;RP0=0, select bank0
  3965     16BC  1303               	bcf	3,6	;RP1=0, select bank0
  3966     16BD  1C06               	btfss	6,0	;volatile
  3967     16BE  2EC0               	goto	u3981
  3968     16BF  2EC1               	goto	u3980
  3969     16C0                     u3981:
  3970     16C0  2EBB               	goto	l213
  3971     16C1                     u3980:
  3972     16C1                     l3166:
  3973     16C1  160A  118A  2538  160A  118A  	fcall	_clear_screen
  3974     16C6                     l3168:
  3975     16C6  309C               	movlw	low (STR_31| (0+32768))
  3976     16C7  00F6               	movwf	clcd_print@str
  3977     16C8  3090               	movlw	high (STR_31| (0+32768))
  3978     16C9  00F7               	movwf	clcd_print@str+1
  3979     16CA  3080               	movlw	128
  3980     16CB  00F8               	movwf	clcd_print@addr
  3981     16CC  160A  118A  2615  160A  118A  	fcall	_clcd_print
  3982     16D1                     l3170:
  3983     16D1  3030               	movlw	low (STR_32| (0+32768))
  3984     16D2  00F6               	movwf	clcd_print@str
  3985     16D3  3091               	movlw	high (STR_32| (0+32768))
  3986     16D4  00F7               	movwf	clcd_print@str+1
  3987     16D5  30C0               	movlw	192
  3988     16D6  00F8               	movwf	clcd_print@addr
  3989     16D7  160A  118A  2615  160A  118A  	fcall	_clcd_print
  3990     16DC                     l3172:
  3991     16DC  3000               	movlw	low (STR_33| (0+32768))
  3992     16DD  00F6               	movwf	clcd_print@str
  3993     16DE  3090               	movlw	high (STR_33| (0+32768))
  3994     16DF  00F7               	movwf	clcd_print@str+1
  3995     16E0  30D0               	movlw	208
  3996     16E1  00F8               	movwf	clcd_print@addr
  3997     16E2  160A  118A  2615  160A  118A  	fcall	_clcd_print
  3998     16E7                     l3174:
  3999     16E7  1283               	bcf	3,5	;RP0=0, select bank0
  4000     16E8  1303               	bcf	3,6	;RP1=0, select bank0
  4001     16E9  1507               	bsf	7,2	;volatile
  4002     16EA                     l3176:
  4003     16EA  1512               	bsf	18,2	;volatile
  4004     16EB                     l3178:
  4005     16EB  1087               	bcf	7,1	;volatile
  4006     16EC                     l216:
  4007     16EC  0008               	return
  4008     16ED                     __end_of_door_status_check:
  4009                           
  4010                           	psect	text6
  4011     071E                     __ptext6:	
  4012 ;; *************** function ___xxtofl *****************
  4013 ;; Defined at:
  4014 ;;		line 10 in file "C:\Program Files\Microchip\xc8\v2.46\pic\sources\c99\common\xxtofl.c"
  4015 ;; Parameters:    Size  Location     Type
  4016 ;;  sign            1    wreg     unsigned char 
  4017 ;;  val             4    2[COMMON] long 
  4018 ;; Auto vars:     Size  Location     Type
  4019 ;;  sign            1    0[BANK0 ] unsigned char 
  4020 ;;  arg             4    2[BANK0 ] unsigned long 
  4021 ;;  exp             1    1[BANK0 ] unsigned char 
  4022 ;; Return value:  Size  Location     Type
  4023 ;;                  4    2[COMMON] unsigned char 
  4024 ;; Registers used:
  4025 ;;		wreg, status,2, status,0, btemp+1
  4026 ;; Tracked objects:
  4027 ;;		On entry : 0/0
  4028 ;;		On exit  : 0/0
  4029 ;;		Unchanged: 0/0
  4030 ;; Data sizes:     COMMON   BANK0   BANK1   BANK3   BANK2
  4031 ;;      Params:         4       0       0       0       0
  4032 ;;      Locals:         0       6       0       0       0
  4033 ;;      Temps:          4       0       0       0       0
  4034 ;;      Totals:         8       6       0       0       0
  4035 ;;Total ram usage:       14 bytes
  4036 ;; Hardware stack levels used: 1
  4037 ;; Hardware stack levels required when called: 1
  4038 ;; This function calls:
  4039 ;;		Nothing
  4040 ;; This function is called by:
  4041 ;;		_run_program
  4042 ;; This function uses a non-reentrant model
  4043 ;;
  4044                           
  4045     071E                     ___xxtofl:	
  4046                           ;psect for function ___xxtofl
  4047                           
  4048                           
  4049                           ;incstack = 0
  4050                           ; Regs used in ___xxtofl: [wreg+status,2+status,0+btemp+1]
  4051                           ;___xxtofl@sign stored from wreg
  4052     071E  1283               	bcf	3,5	;RP0=0, select bank0
  4053     071F  1303               	bcf	3,6	;RP1=0, select bank0
  4054     0720  00A0               	movwf	___xxtofl@sign
  4055     0721                     l2568:
  4056     0721  0820               	movf	___xxtofl@sign,w
  4057     0722  1903               	btfsc	3,2
  4058     0723  2F25               	goto	u3271
  4059     0724  2F26               	goto	u3270
  4060     0725                     u3271:
  4061     0725  2F3A               	goto	l2574
  4062     0726                     u3270:
  4063     0726                     l2570:
  4064     0726  1FF5               	btfss	___xxtofl@val+3,7
  4065     0727  2F29               	goto	u3281
  4066     0728  2F2A               	goto	u3280
  4067     0729                     u3281:
  4068     0729  2F3A               	goto	l2574
  4069     072A                     u3280:
  4070     072A                     l2572:
  4071     072A  0972               	comf	___xxtofl@val,w
  4072     072B  00A2               	movwf	___xxtofl@arg
  4073     072C  0973               	comf	___xxtofl@val+1,w
  4074     072D  00A3               	movwf	___xxtofl@arg+1
  4075     072E  0974               	comf	___xxtofl@val+2,w
  4076     072F  00A4               	movwf	___xxtofl@arg+2
  4077     0730  0975               	comf	___xxtofl@val+3,w
  4078     0731  00A5               	movwf	___xxtofl@arg+3
  4079     0732  0AA2               	incf	___xxtofl@arg,f
  4080     0733  1903               	skipnz
  4081     0734  0AA3               	incf	___xxtofl@arg+1,f
  4082     0735  1903               	skipnz
  4083     0736  0AA4               	incf	___xxtofl@arg+2,f
  4084     0737  1903               	skipnz
  4085     0738  0AA5               	incf	___xxtofl@arg+3,f
  4086     0739  2F42               	goto	l831
  4087     073A                     l2574:
  4088     073A  0875               	movf	___xxtofl@val+3,w
  4089     073B  00A5               	movwf	___xxtofl@arg+3
  4090     073C  0874               	movf	___xxtofl@val+2,w
  4091     073D  00A4               	movwf	___xxtofl@arg+2
  4092     073E  0873               	movf	___xxtofl@val+1,w
  4093     073F  00A3               	movwf	___xxtofl@arg+1
  4094     0740  0872               	movf	___xxtofl@val,w
  4095     0741  00A2               	movwf	___xxtofl@arg
  4096     0742                     l831:
  4097     0742  0875               	movf	___xxtofl@val+3,w
  4098     0743  0474               	iorwf	___xxtofl@val+2,w
  4099     0744  0473               	iorwf	___xxtofl@val+1,w
  4100     0745  0472               	iorwf	___xxtofl@val,w
  4101     0746  1D03               	skipz
  4102     0747  2F49               	goto	u3291
  4103     0748  2F4A               	goto	u3290
  4104     0749                     u3291:
  4105     0749  2F53               	goto	l2580
  4106     074A                     u3290:
  4107     074A                     l2576:
  4108     074A  3000               	movlw	0
  4109     074B  00F5               	movwf	?___xxtofl+3
  4110     074C  3000               	movlw	0
  4111     074D  00F4               	movwf	?___xxtofl+2
  4112     074E  3000               	movlw	0
  4113     074F  00F3               	movwf	?___xxtofl+1
  4114     0750  3000               	movlw	0
  4115     0751  00F2               	movwf	?___xxtofl
  4116     0752  2FD7               	goto	l833
  4117     0753                     l2580:
  4118     0753  3096               	movlw	150
  4119     0754  00A1               	movwf	___xxtofl@exp
  4120     0755  2F63               	goto	l2586
  4121     0756                     l2582:
  4122     0756  3001               	movlw	1
  4123     0757  00FF               	movwf	btemp+1
  4124     0758  087F               	movf	btemp+1,w
  4125     0759  07A1               	addwf	___xxtofl@exp,f
  4126     075A                     l2584:
  4127     075A  3001               	movlw	1
  4128     075B                     u3305:
  4129     075B  1003               	clrc
  4130     075C  0CA5               	rrf	___xxtofl@arg+3,f
  4131     075D  0CA4               	rrf	___xxtofl@arg+2,f
  4132     075E  0CA3               	rrf	___xxtofl@arg+1,f
  4133     075F  0CA2               	rrf	___xxtofl@arg,f
  4134     0760  3EFF               	addlw	-1
  4135     0761  1D03               	skipz
  4136     0762  2F5B               	goto	u3305
  4137     0763                     l2586:
  4138     0763  30FE               	movlw	254
  4139     0764  0525               	andwf	___xxtofl@arg+3,w
  4140     0765  1D03               	btfss	3,2
  4141     0766  2F68               	goto	u3311
  4142     0767  2F69               	goto	u3310
  4143     0768                     u3311:
  4144     0768  2F56               	goto	l2582
  4145     0769                     u3310:
  4146     0769  2F85               	goto	l2594
  4147     076A                     l2588:
  4148     076A  3001               	movlw	1
  4149     076B  00FF               	movwf	btemp+1
  4150     076C  087F               	movf	btemp+1,w
  4151     076D  07A1               	addwf	___xxtofl@exp,f
  4152     076E                     l2590:
  4153     076E  3001               	movlw	1
  4154     076F  07A2               	addwf	___xxtofl@arg,f
  4155     0770  3000               	movlw	0
  4156     0771  1803               	skipnc
  4157     0772  3001               	movlw	1
  4158     0773  07A3               	addwf	___xxtofl@arg+1,f
  4159     0774  3000               	movlw	0
  4160     0775  1803               	skipnc
  4161     0776  3001               	movlw	1
  4162     0777  07A4               	addwf	___xxtofl@arg+2,f
  4163     0778  3000               	movlw	0
  4164     0779  1803               	skipnc
  4165     077A  3001               	movlw	1
  4166     077B  07A5               	addwf	___xxtofl@arg+3,f
  4167     077C                     l2592:
  4168     077C  3001               	movlw	1
  4169     077D                     u3325:
  4170     077D  1003               	clrc
  4171     077E  0CA5               	rrf	___xxtofl@arg+3,f
  4172     077F  0CA4               	rrf	___xxtofl@arg+2,f
  4173     0780  0CA3               	rrf	___xxtofl@arg+1,f
  4174     0781  0CA2               	rrf	___xxtofl@arg,f
  4175     0782  3EFF               	addlw	-1
  4176     0783  1D03               	skipz
  4177     0784  2F7D               	goto	u3325
  4178     0785                     l2594:
  4179     0785  30FF               	movlw	255
  4180     0786  0525               	andwf	___xxtofl@arg+3,w
  4181     0787  1D03               	btfss	3,2
  4182     0788  2F8A               	goto	u3331
  4183     0789  2F8B               	goto	u3330
  4184     078A                     u3331:
  4185     078A  2F6A               	goto	l2588
  4186     078B                     u3330:
  4187     078B  2F97               	goto	l2598
  4188     078C                     l2596:
  4189     078C  3001               	movlw	1
  4190     078D  02A1               	subwf	___xxtofl@exp,f
  4191     078E  3001               	movlw	1
  4192     078F  00F6               	movwf	??___xxtofl
  4193     0790                     u3345:
  4194     0790  1003               	clrc
  4195     0791  0DA2               	rlf	___xxtofl@arg,f
  4196     0792  0DA3               	rlf	___xxtofl@arg+1,f
  4197     0793  0DA4               	rlf	___xxtofl@arg+2,f
  4198     0794  0DA5               	rlf	___xxtofl@arg+3,f
  4199     0795  0BF6               	decfsz	??___xxtofl,f
  4200     0796  2F90               	goto	u3345
  4201     0797                     l2598:
  4202     0797  1BA4               	btfsc	___xxtofl@arg+2,7
  4203     0798  2F9A               	goto	u3351
  4204     0799  2F9B               	goto	u3350
  4205     079A                     u3351:
  4206     079A  2FA1               	goto	l844
  4207     079B                     u3350:
  4208     079B                     l2600:
  4209     079B  3002               	movlw	2
  4210     079C  0221               	subwf	___xxtofl@exp,w
  4211     079D  1803               	skipnc
  4212     079E  2FA0               	goto	u3361
  4213     079F  2FA1               	goto	u3360
  4214     07A0                     u3361:
  4215     07A0  2F8C               	goto	l2596
  4216     07A1                     u3360:
  4217     07A1                     l844:
  4218     07A1  1821               	btfsc	___xxtofl@exp,0
  4219     07A2  2FA4               	goto	u3371
  4220     07A3  2FA5               	goto	u3370
  4221     07A4                     u3371:
  4222     07A4  2FAD               	goto	l845
  4223     07A5                     u3370:
  4224     07A5                     l2602:
  4225     07A5  30FF               	movlw	255
  4226     07A6  05A2               	andwf	___xxtofl@arg,f
  4227     07A7  30FF               	movlw	255
  4228     07A8  05A3               	andwf	___xxtofl@arg+1,f
  4229     07A9  307F               	movlw	127
  4230     07AA  05A4               	andwf	___xxtofl@arg+2,f
  4231     07AB  30FF               	movlw	255
  4232     07AC  05A5               	andwf	___xxtofl@arg+3,f
  4233     07AD                     l845:
  4234     07AD  1003               	clrc
  4235     07AE  0CA1               	rrf	___xxtofl@exp,f
  4236     07AF                     l2604:
  4237     07AF  0821               	movf	___xxtofl@exp,w
  4238     07B0  00F6               	movwf	??___xxtofl
  4239     07B1  01F7               	clrf	??___xxtofl+1
  4240     07B2  01F8               	clrf	??___xxtofl+2
  4241     07B3  01F9               	clrf	??___xxtofl+3
  4242     07B4  3018               	movlw	24
  4243     07B5                     u3385:
  4244     07B5  1003               	clrc
  4245     07B6  0DF6               	rlf	??___xxtofl,f
  4246     07B7  0DF7               	rlf	??___xxtofl+1,f
  4247     07B8  0DF8               	rlf	??___xxtofl+2,f
  4248     07B9  0DF9               	rlf	??___xxtofl+3,f
  4249     07BA                     u3380:
  4250     07BA  3EFF               	addlw	-1
  4251     07BB  1D03               	skipz
  4252     07BC  2FB5               	goto	u3385
  4253     07BD  0876               	movf	??___xxtofl,w
  4254     07BE  04A2               	iorwf	___xxtofl@arg,f
  4255     07BF  0877               	movf	??___xxtofl+1,w
  4256     07C0  04A3               	iorwf	___xxtofl@arg+1,f
  4257     07C1  0878               	movf	??___xxtofl+2,w
  4258     07C2  04A4               	iorwf	___xxtofl@arg+2,f
  4259     07C3  0879               	movf	??___xxtofl+3,w
  4260     07C4  04A5               	iorwf	___xxtofl@arg+3,f
  4261     07C5                     l2606:
  4262     07C5  0820               	movf	___xxtofl@sign,w
  4263     07C6  1903               	btfsc	3,2
  4264     07C7  2FC9               	goto	u3391
  4265     07C8  2FCA               	goto	u3390
  4266     07C9                     u3391:
  4267     07C9  2FCF               	goto	l2612
  4268     07CA                     u3390:
  4269     07CA                     l2608:
  4270     07CA  1FF5               	btfss	___xxtofl@val+3,7
  4271     07CB  2FCD               	goto	u3401
  4272     07CC  2FCE               	goto	u3400
  4273     07CD                     u3401:
  4274     07CD  2FCF               	goto	l2612
  4275     07CE                     u3400:
  4276     07CE                     l2610:
  4277     07CE  17A5               	bsf	___xxtofl@arg+3,7
  4278     07CF                     l2612:
  4279     07CF  0825               	movf	___xxtofl@arg+3,w
  4280     07D0  00F5               	movwf	?___xxtofl+3
  4281     07D1  0824               	movf	___xxtofl@arg+2,w
  4282     07D2  00F4               	movwf	?___xxtofl+2
  4283     07D3  0823               	movf	___xxtofl@arg+1,w
  4284     07D4  00F3               	movwf	?___xxtofl+1
  4285     07D5  0822               	movf	___xxtofl@arg,w
  4286     07D6  00F2               	movwf	?___xxtofl
  4287     07D7                     l833:
  4288     07D7  0008               	return
  4289     07D8                     __end_of___xxtofl:
  4290                           
  4291                           	psect	text7
  4292     07D8                     __ptext7:	
  4293 ;; *************** function ___wmul *****************
  4294 ;; Defined at:
  4295 ;;		line 15 in file "C:\Program Files\Microchip\xc8\v2.46\pic\sources\c99\common\Umul16.c"
  4296 ;; Parameters:    Size  Location     Type
  4297 ;;  multiplier      2    2[COMMON] unsigned int 
  4298 ;;  multiplicand    2    4[COMMON] unsigned int 
  4299 ;; Auto vars:     Size  Location     Type
  4300 ;;  product         2    6[COMMON] unsigned int 
  4301 ;; Return value:  Size  Location     Type
  4302 ;;                  2    2[COMMON] unsigned int 
  4303 ;; Registers used:
  4304 ;;		wreg, status,2, status,0
  4305 ;; Tracked objects:
  4306 ;;		On entry : 0/0
  4307 ;;		On exit  : 0/0
  4308 ;;		Unchanged: 0/0
  4309 ;; Data sizes:     COMMON   BANK0   BANK1   BANK3   BANK2
  4310 ;;      Params:         4       0       0       0       0
  4311 ;;      Locals:         2       0       0       0       0
  4312 ;;      Temps:          0       0       0       0       0
  4313 ;;      Totals:         6       0       0       0       0
  4314 ;;Total ram usage:        6 bytes
  4315 ;; Hardware stack levels used: 1
  4316 ;; Hardware stack levels required when called: 1
  4317 ;; This function calls:
  4318 ;;		Nothing
  4319 ;; This function is called by:
  4320 ;;		_run_program
  4321 ;; This function uses a non-reentrant model
  4322 ;;
  4323                           
  4324     07D8                     ___wmul:	
  4325                           ;psect for function ___wmul
  4326                           
  4327     07D8                     l2266:	
  4328                           ;incstack = 0
  4329                           ; Regs used in ___wmul: [wreg+status,2+status,0]
  4330                           
  4331     07D8  01F6               	clrf	___wmul@product
  4332     07D9  01F7               	clrf	___wmul@product+1
  4333     07DA                     l2268:
  4334     07DA  1C72               	btfss	___wmul@multiplier,0
  4335     07DB  2FDD               	goto	u2501
  4336     07DC  2FDE               	goto	u2500
  4337     07DD                     u2501:
  4338     07DD  2FE4               	goto	l390
  4339     07DE                     u2500:
  4340     07DE                     l2270:
  4341     07DE  0874               	movf	___wmul@multiplicand,w
  4342     07DF  07F6               	addwf	___wmul@product,f
  4343     07E0  1803               	skipnc
  4344     07E1  0AF7               	incf	___wmul@product+1,f
  4345     07E2  0875               	movf	___wmul@multiplicand+1,w
  4346     07E3  07F7               	addwf	___wmul@product+1,f
  4347     07E4                     l390:
  4348     07E4  3001               	movlw	1
  4349     07E5                     u2515:
  4350     07E5  1003               	clrc
  4351     07E6  0DF4               	rlf	___wmul@multiplicand,f
  4352     07E7  0DF5               	rlf	___wmul@multiplicand+1,f
  4353     07E8  3EFF               	addlw	-1
  4354     07E9  1D03               	skipz
  4355     07EA  2FE5               	goto	u2515
  4356     07EB                     l2272:
  4357     07EB  3001               	movlw	1
  4358     07EC                     u2525:
  4359     07EC  1003               	clrc
  4360     07ED  0CF3               	rrf	___wmul@multiplier+1,f
  4361     07EE  0CF2               	rrf	___wmul@multiplier,f
  4362     07EF  3EFF               	addlw	-1
  4363     07F0  1D03               	skipz
  4364     07F1  2FEC               	goto	u2525
  4365     07F2                     l2274:
  4366     07F2  0872               	movf	___wmul@multiplier,w
  4367     07F3  0473               	iorwf	___wmul@multiplier+1,w
  4368     07F4  1D03               	btfss	3,2
  4369     07F5  2FF7               	goto	u2531
  4370     07F6  2FF8               	goto	u2530
  4371     07F7                     u2531:
  4372     07F7  2FDA               	goto	l2268
  4373     07F8                     u2530:
  4374     07F8                     l2276:
  4375     07F8  0877               	movf	___wmul@product+1,w
  4376     07F9  00F3               	movwf	?___wmul+1
  4377     07FA  0876               	movf	___wmul@product,w
  4378     07FB  00F2               	movwf	?___wmul
  4379     07FC                     l392:
  4380     07FC  0008               	return
  4381     07FD                     __end_of___wmul:
  4382                           
  4383                           	psect	text8
  4384     08AB                     __ptext8:	
  4385 ;; *************** function ___fltol *****************
  4386 ;; Defined at:
  4387 ;;		line 43 in file "C:\Program Files\Microchip\xc8\v2.46\pic\sources\c99\common\fltol.c"
  4388 ;; Parameters:    Size  Location     Type
  4389 ;;  f1              4   32[BANK0 ] unsigned int 
  4390 ;; Auto vars:     Size  Location     Type
  4391 ;;  exp1            1   41[BANK0 ] unsigned char 
  4392 ;;  sign1           1   40[BANK0 ] unsigned char 
  4393 ;; Return value:  Size  Location     Type
  4394 ;;                  4   32[BANK0 ] long 
  4395 ;; Registers used:
  4396 ;;		wreg, status,2, status,0, btemp+1
  4397 ;; Tracked objects:
  4398 ;;		On entry : 0/0
  4399 ;;		On exit  : 0/0
  4400 ;;		Unchanged: 0/0
  4401 ;; Data sizes:     COMMON   BANK0   BANK1   BANK3   BANK2
  4402 ;;      Params:         0       4       0       0       0
  4403 ;;      Locals:         0       2       0       0       0
  4404 ;;      Temps:          0       4       0       0       0
  4405 ;;      Totals:         0      10       0       0       0
  4406 ;;Total ram usage:       10 bytes
  4407 ;; Hardware stack levels used: 1
  4408 ;; Hardware stack levels required when called: 1
  4409 ;; This function calls:
  4410 ;;		Nothing
  4411 ;; This function is called by:
  4412 ;;		_run_program
  4413 ;; This function uses a non-reentrant model
  4414 ;;
  4415                           
  4416     08AB                     ___fltol:	
  4417                           ;psect for function ___fltol
  4418                           
  4419     08AB                     l2382:	
  4420                           ;incstack = 0
  4421                           ; Regs used in ___fltol: [wreg+status,2+status,0+btemp+1]
  4422                           
  4423     08AB  1003               	clrc
  4424     08AC  1283               	bcf	3,5	;RP0=0, select bank0
  4425     08AD  1303               	bcf	3,6	;RP1=0, select bank0
  4426     08AE  0D42               	rlf	___fltol@f1+2,w
  4427     08AF  0D43               	rlf	___fltol@f1+3,w
  4428     08B0  00C9               	movwf	___fltol@exp1
  4429     08B1  0849               	movf	___fltol@exp1,w
  4430     08B2  1D03               	btfss	3,2
  4431     08B3  28B5               	goto	u2801
  4432     08B4  28B6               	goto	u2800
  4433     08B5                     u2801:
  4434     08B5  28BF               	goto	l2388
  4435     08B6                     u2800:
  4436     08B6                     l2384:
  4437     08B6  3000               	movlw	0
  4438     08B7  00C3               	movwf	?___fltol+3
  4439     08B8  3000               	movlw	0
  4440     08B9  00C2               	movwf	?___fltol+2
  4441     08BA  3000               	movlw	0
  4442     08BB  00C1               	movwf	?___fltol+1
  4443     08BC  3000               	movlw	0
  4444     08BD  00C0               	movwf	?___fltol
  4445     08BE  2922               	goto	l584
  4446     08BF                     l2388:
  4447     08BF  0840               	movf	___fltol@f1,w
  4448     08C0  00C4               	movwf	??___fltol
  4449     08C1  0841               	movf	___fltol@f1+1,w
  4450     08C2  00C5               	movwf	??___fltol+1
  4451     08C3  0842               	movf	___fltol@f1+2,w
  4452     08C4  00C6               	movwf	??___fltol+2
  4453     08C5  0843               	movf	___fltol@f1+3,w
  4454     08C6  00C7               	movwf	??___fltol+3
  4455     08C7  301F               	movlw	31
  4456     08C8                     u2815:
  4457     08C8  1003               	clrc
  4458     08C9  0CC7               	rrf	??___fltol+3,f
  4459     08CA  0CC6               	rrf	??___fltol+2,f
  4460     08CB  0CC5               	rrf	??___fltol+1,f
  4461     08CC  0CC4               	rrf	??___fltol,f
  4462     08CD                     u2810:
  4463     08CD  3EFF               	addlw	-1
  4464     08CE  1D03               	skipz
  4465     08CF  28C8               	goto	u2815
  4466     08D0  0844               	movf	??___fltol,w
  4467     08D1  00C8               	movwf	___fltol@sign1
  4468     08D2                     l2390:
  4469     08D2  17C2               	bsf	___fltol@f1+2,7
  4470     08D3                     l2392:
  4471     08D3  30FF               	movlw	255
  4472     08D4  05C0               	andwf	___fltol@f1,f
  4473     08D5  30FF               	movlw	255
  4474     08D6  05C1               	andwf	___fltol@f1+1,f
  4475     08D7  30FF               	movlw	255
  4476     08D8  05C2               	andwf	___fltol@f1+2,f
  4477     08D9  3000               	movlw	0
  4478     08DA  05C3               	andwf	___fltol@f1+3,f
  4479     08DB                     l2394:
  4480     08DB  3096               	movlw	150
  4481     08DC  02C9               	subwf	___fltol@exp1,f
  4482     08DD                     l2396:
  4483     08DD  1FC9               	btfss	___fltol@exp1,7
  4484     08DE  28E0               	goto	u2821
  4485     08DF  28E1               	goto	u2820
  4486     08E0                     u2821:
  4487     08E0  28FB               	goto	l2408
  4488     08E1                     u2820:
  4489     08E1                     l2398:
  4490     08E1  0849               	movf	___fltol@exp1,w
  4491     08E2  3A80               	xorlw	128
  4492     08E3  3E97               	addlw	151
  4493     08E4  1803               	skipnc
  4494     08E5  28E7               	goto	u2831
  4495     08E6  28E8               	goto	u2830
  4496     08E7                     u2831:
  4497     08E7  28E9               	goto	l2404
  4498     08E8                     u2830:
  4499     08E8  28B6               	goto	l2384
  4500     08E9                     l2404:
  4501     08E9  3001               	movlw	1
  4502     08EA                     u2845:
  4503     08EA  1003               	clrc
  4504     08EB  0CC3               	rrf	___fltol@f1+3,f
  4505     08EC  0CC2               	rrf	___fltol@f1+2,f
  4506     08ED  0CC1               	rrf	___fltol@f1+1,f
  4507     08EE  0CC0               	rrf	___fltol@f1,f
  4508     08EF  3EFF               	addlw	-1
  4509     08F0  1D03               	skipz
  4510     08F1  28EA               	goto	u2845
  4511     08F2                     l2406:
  4512     08F2  3001               	movlw	1
  4513     08F3  00FF               	movwf	btemp+1
  4514     08F4  087F               	movf	btemp+1,w
  4515     08F5  07C9               	addwf	___fltol@exp1,f
  4516     08F6  1D03               	btfss	3,2
  4517     08F7  28F9               	goto	u2851
  4518     08F8  28FA               	goto	u2850
  4519     08F9                     u2851:
  4520     08F9  28E9               	goto	l2404
  4521     08FA                     u2850:
  4522     08FA  2912               	goto	l2416
  4523     08FB                     l2408:
  4524     08FB  3020               	movlw	32
  4525     08FC  0249               	subwf	___fltol@exp1,w
  4526     08FD  1C03               	skipc
  4527     08FE  2900               	goto	u2861
  4528     08FF  2901               	goto	u2860
  4529     0900                     u2861:
  4530     0900  290D               	goto	l591
  4531     0901                     u2860:
  4532     0901  28B6               	goto	l2384
  4533     0902                     l2414:
  4534     0902  3001               	movlw	1
  4535     0903  00C4               	movwf	??___fltol
  4536     0904                     u2875:
  4537     0904  1003               	clrc
  4538     0905  0DC0               	rlf	___fltol@f1,f
  4539     0906  0DC1               	rlf	___fltol@f1+1,f
  4540     0907  0DC2               	rlf	___fltol@f1+2,f
  4541     0908  0DC3               	rlf	___fltol@f1+3,f
  4542     0909  0BC4               	decfsz	??___fltol,f
  4543     090A  2904               	goto	u2875
  4544     090B  3001               	movlw	1
  4545     090C  02C9               	subwf	___fltol@exp1,f
  4546     090D                     l591:
  4547     090D  0849               	movf	___fltol@exp1,w
  4548     090E  1D03               	btfss	3,2
  4549     090F  2911               	goto	u2881
  4550     0910  2912               	goto	u2880
  4551     0911                     u2881:
  4552     0911  2902               	goto	l2414
  4553     0912                     u2880:
  4554     0912                     l2416:
  4555     0912  0848               	movf	___fltol@sign1,w
  4556     0913  1903               	btfsc	3,2
  4557     0914  2916               	goto	u2891
  4558     0915  2917               	goto	u2890
  4559     0916                     u2891:
  4560     0916  2922               	goto	l594
  4561     0917                     u2890:
  4562     0917                     l2418:
  4563     0917  09C0               	comf	___fltol@f1,f
  4564     0918  09C1               	comf	___fltol@f1+1,f
  4565     0919  09C2               	comf	___fltol@f1+2,f
  4566     091A  09C3               	comf	___fltol@f1+3,f
  4567     091B  0AC0               	incf	___fltol@f1,f
  4568     091C  1903               	skipnz
  4569     091D  0AC1               	incf	___fltol@f1+1,f
  4570     091E  1903               	skipnz
  4571     091F  0AC2               	incf	___fltol@f1+2,f
  4572     0920  1903               	skipnz
  4573     0921  0AC3               	incf	___fltol@f1+3,f
  4574     0922                     l594:
  4575     0922                     l584:
  4576     0922  0008               	return
  4577     0923                     __end_of___fltol:
  4578                           
  4579                           	psect	text9
  4580     15C8                     __ptext9:	
  4581 ;; *************** function ___flsub *****************
  4582 ;; Defined at:
  4583 ;;		line 242 in file "C:\Program Files\Microchip\xc8\v2.46\pic\sources\c99\common\sprcadd.c"
  4584 ;; Parameters:    Size  Location     Type
  4585 ;;  a               4   32[BANK0 ] long 
  4586 ;;  b               4   36[BANK0 ] long 
  4587 ;; Auto vars:     Size  Location     Type
  4588 ;;		None
  4589 ;; Return value:  Size  Location     Type
  4590 ;;                  4   32[BANK0 ] long 
  4591 ;; Registers used:
  4592 ;;		wreg, status,2, status,0, btemp+1, pclath, cstack
  4593 ;; Tracked objects:
  4594 ;;		On entry : 0/0
  4595 ;;		On exit  : 0/0
  4596 ;;		Unchanged: 0/0
  4597 ;; Data sizes:     COMMON   BANK0   BANK1   BANK3   BANK2
  4598 ;;      Params:         0       8       0       0       0
  4599 ;;      Locals:         0       0       0       0       0
  4600 ;;      Temps:          0       0       0       0       0
  4601 ;;      Totals:         0       8       0       0       0
  4602 ;;Total ram usage:        8 bytes
  4603 ;; Hardware stack levels used: 1
  4604 ;; Hardware stack levels required when called: 2
  4605 ;; This function calls:
  4606 ;;		___fladd
  4607 ;; This function is called by:
  4608 ;;		_run_program
  4609 ;; This function uses a non-reentrant model
  4610 ;;
  4611                           
  4612     15C8                     ___flsub:	
  4613                           ;psect for function ___flsub
  4614                           
  4615     15C8                     l2420:	
  4616                           ;incstack = 0
  4617                           ; Regs used in ___flsub: [wreg+status,2+status,0+btemp+1+pclath+cstack]
  4618                           
  4619     15C8  3080               	movlw	128
  4620     15C9  1283               	bcf	3,5	;RP0=0, select bank0
  4621     15CA  1303               	bcf	3,6	;RP1=0, select bank0
  4622     15CB  06C3               	xorwf	___flsub@a+3,f
  4623     15CC                     l2422:
  4624     15CC  0847               	movf	___flsub@b+3,w
  4625     15CD  00F5               	movwf	___fladd@b+3
  4626     15CE  0846               	movf	___flsub@b+2,w
  4627     15CF  00F4               	movwf	___fladd@b+2
  4628     15D0  0845               	movf	___flsub@b+1,w
  4629     15D1  00F3               	movwf	___fladd@b+1
  4630     15D2  0844               	movf	___flsub@b,w
  4631     15D3  00F2               	movwf	___fladd@b
  4632     15D4  0843               	movf	___flsub@a+3,w
  4633     15D5  00F9               	movwf	___fladd@a+3
  4634     15D6  0842               	movf	___flsub@a+2,w
  4635     15D7  00F8               	movwf	___fladd@a+2
  4636     15D8  0841               	movf	___flsub@a+1,w
  4637     15D9  00F7               	movwf	___fladd@a+1
  4638     15DA  0840               	movf	___flsub@a,w
  4639     15DB  00F6               	movwf	___fladd@a
  4640     15DC  120A  158A  25A8  160A  118A  	fcall	___fladd
  4641     15E1  0875               	movf	?___fladd+3,w
  4642     15E2  1283               	bcf	3,5	;RP0=0, select bank0
  4643     15E3  1303               	bcf	3,6	;RP1=0, select bank0
  4644     15E4  00C3               	movwf	?___flsub+3
  4645     15E5  0874               	movf	?___fladd+2,w
  4646     15E6  00C2               	movwf	?___flsub+2
  4647     15E7  0873               	movf	?___fladd+1,w
  4648     15E8  00C1               	movwf	?___flsub+1
  4649     15E9  0872               	movf	?___fladd,w
  4650     15EA  00C0               	movwf	?___flsub
  4651     15EB                     l737:
  4652     15EB  0008               	return
  4653     15EC                     __end_of___flsub:
  4654                           
  4655                           	psect	text10
  4656     0DA8                     __ptext10:	
  4657 ;; *************** function ___fladd *****************
  4658 ;; Defined at:
  4659 ;;		line 10 in file "C:\Program Files\Microchip\xc8\v2.46\pic\sources\c99\common\sprcadd.c"
  4660 ;; Parameters:    Size  Location     Type
  4661 ;;  b               4    2[COMMON] long 
  4662 ;;  a               4    6[COMMON] long 
  4663 ;; Auto vars:     Size  Location     Type
  4664 ;;  grs             1   11[BANK0 ] unsigned char 
  4665 ;;  bexp            1   10[BANK0 ] unsigned char 
  4666 ;;  aexp            1    9[BANK0 ] unsigned char 
  4667 ;;  signs           1    8[BANK0 ] unsigned char 
  4668 ;; Return value:  Size  Location     Type
  4669 ;;                  4    2[COMMON] unsigned char 
  4670 ;; Registers used:
  4671 ;;		wreg, status,2, status,0, btemp+1
  4672 ;; Tracked objects:
  4673 ;;		On entry : 0/0
  4674 ;;		On exit  : 0/0
  4675 ;;		Unchanged: 0/0
  4676 ;; Data sizes:     COMMON   BANK0   BANK1   BANK3   BANK2
  4677 ;;      Params:         8       0       0       0       0
  4678 ;;      Locals:         0       4       0       0       0
  4679 ;;      Temps:          0       8       0       0       0
  4680 ;;      Totals:         8      12       0       0       0
  4681 ;;Total ram usage:       20 bytes
  4682 ;; Hardware stack levels used: 1
  4683 ;; Hardware stack levels required when called: 1
  4684 ;; This function calls:
  4685 ;;		Nothing
  4686 ;; This function is called by:
  4687 ;;		___flsub
  4688 ;; This function uses a non-reentrant model
  4689 ;;
  4690                           
  4691     0DA8                     ___fladd:	
  4692                           ;psect for function ___fladd
  4693                           
  4694     0DA8                     l2010:	
  4695                           ;incstack = 0
  4696                           ; Regs used in ___fladd: [wreg+status,2+status,0+btemp+1]
  4697                           
  4698     0DA8  0875               	movf	___fladd@b+3,w
  4699     0DA9  3980               	andlw	128
  4700     0DAA  1283               	bcf	3,5	;RP0=0, select bank0
  4701     0DAB  1303               	bcf	3,6	;RP1=0, select bank0
  4702     0DAC  00A8               	movwf	___fladd@signs
  4703     0DAD                     l2012:
  4704     0DAD  0875               	movf	___fladd@b+3,w
  4705     0DAE  00A0               	movwf	??___fladd
  4706     0DAF  0720               	addwf	??___fladd,w
  4707     0DB0  00AA               	movwf	___fladd@bexp
  4708     0DB1                     l2014:
  4709     0DB1  1FF4               	btfss	___fladd@b+2,7
  4710     0DB2  2DB4               	goto	u1991
  4711     0DB3  2DB5               	goto	u1990
  4712     0DB4                     u1991:
  4713     0DB4  2DB6               	goto	l2018
  4714     0DB5                     u1990:
  4715     0DB5                     l2016:
  4716     0DB5  142A               	bsf	___fladd@bexp,0
  4717     0DB6                     l2018:
  4718     0DB6  082A               	movf	___fladd@bexp,w
  4719     0DB7  1903               	btfsc	3,2
  4720     0DB8  2DBA               	goto	u2001
  4721     0DB9  2DBB               	goto	u2000
  4722     0DBA                     u2001:
  4723     0DBA  2DCB               	goto	l2028
  4724     0DBB                     u2000:
  4725     0DBB                     l2020:
  4726     0DBB  0A2A               	incf	___fladd@bexp,w
  4727     0DBC  1D03               	btfss	3,2
  4728     0DBD  2DBF               	goto	u2011
  4729     0DBE  2DC0               	goto	u2010
  4730     0DBF                     u2011:
  4731     0DBF  2DC8               	goto	l2024
  4732     0DC0                     u2010:
  4733     0DC0                     l2022:
  4734     0DC0  3000               	movlw	0
  4735     0DC1  00F5               	movwf	___fladd@b+3
  4736     0DC2  3000               	movlw	0
  4737     0DC3  00F4               	movwf	___fladd@b+2
  4738     0DC4  3000               	movlw	0
  4739     0DC5  00F3               	movwf	___fladd@b+1
  4740     0DC6  3000               	movlw	0
  4741     0DC7  00F2               	movwf	___fladd@b
  4742     0DC8                     l2024:
  4743     0DC8  17F4               	bsf	___fladd@b+2,7
  4744     0DC9                     l2026:
  4745     0DC9  01F5               	clrf	___fladd@b+3
  4746     0DCA  2DD3               	goto	l2030
  4747     0DCB                     l2028:
  4748     0DCB  3000               	movlw	0
  4749     0DCC  00F5               	movwf	___fladd@b+3
  4750     0DCD  3000               	movlw	0
  4751     0DCE  00F4               	movwf	___fladd@b+2
  4752     0DCF  3000               	movlw	0
  4753     0DD0  00F3               	movwf	___fladd@b+1
  4754     0DD1  3000               	movlw	0
  4755     0DD2  00F2               	movwf	___fladd@b
  4756     0DD3                     l2030:
  4757     0DD3  0879               	movf	___fladd@a+3,w
  4758     0DD4  3980               	andlw	128
  4759     0DD5  00A9               	movwf	___fladd@aexp
  4760     0DD6                     l2032:
  4761     0DD6  0829               	movf	___fladd@aexp,w
  4762     0DD7  0628               	xorwf	___fladd@signs,w
  4763     0DD8  1903               	skipnz
  4764     0DD9  2DDB               	goto	u2021
  4765     0DDA  2DDC               	goto	u2020
  4766     0DDB                     u2021:
  4767     0DDB  2DDD               	goto	l2036
  4768     0DDC                     u2020:
  4769     0DDC                     l2034:
  4770     0DDC  1728               	bsf	___fladd@signs,6
  4771     0DDD                     l2036:
  4772     0DDD  0879               	movf	___fladd@a+3,w
  4773     0DDE  00A0               	movwf	??___fladd
  4774     0DDF  0720               	addwf	??___fladd,w
  4775     0DE0  00A9               	movwf	___fladd@aexp
  4776     0DE1                     l2038:
  4777     0DE1  1FF8               	btfss	___fladd@a+2,7
  4778     0DE2  2DE4               	goto	u2031
  4779     0DE3  2DE5               	goto	u2030
  4780     0DE4                     u2031:
  4781     0DE4  2DE6               	goto	l2042
  4782     0DE5                     u2030:
  4783     0DE5                     l2040:
  4784     0DE5  1429               	bsf	___fladd@aexp,0
  4785     0DE6                     l2042:
  4786     0DE6  0829               	movf	___fladd@aexp,w
  4787     0DE7  1903               	btfsc	3,2
  4788     0DE8  2DEA               	goto	u2041
  4789     0DE9  2DEB               	goto	u2040
  4790     0DEA                     u2041:
  4791     0DEA  2DFB               	goto	l2052
  4792     0DEB                     u2040:
  4793     0DEB                     l2044:
  4794     0DEB  0A29               	incf	___fladd@aexp,w
  4795     0DEC  1D03               	btfss	3,2
  4796     0DED  2DEF               	goto	u2051
  4797     0DEE  2DF0               	goto	u2050
  4798     0DEF                     u2051:
  4799     0DEF  2DF8               	goto	l2048
  4800     0DF0                     u2050:
  4801     0DF0                     l2046:
  4802     0DF0  3000               	movlw	0
  4803     0DF1  00F9               	movwf	___fladd@a+3
  4804     0DF2  3000               	movlw	0
  4805     0DF3  00F8               	movwf	___fladd@a+2
  4806     0DF4  3000               	movlw	0
  4807     0DF5  00F7               	movwf	___fladd@a+1
  4808     0DF6  3000               	movlw	0
  4809     0DF7  00F6               	movwf	___fladd@a
  4810     0DF8                     l2048:
  4811     0DF8  17F8               	bsf	___fladd@a+2,7
  4812     0DF9                     l2050:
  4813     0DF9  01F9               	clrf	___fladd@a+3
  4814     0DFA  2E03               	goto	l691
  4815     0DFB                     l2052:
  4816     0DFB  3000               	movlw	0
  4817     0DFC  00F9               	movwf	___fladd@a+3
  4818     0DFD  3000               	movlw	0
  4819     0DFE  00F8               	movwf	___fladd@a+2
  4820     0DFF  3000               	movlw	0
  4821     0E00  00F7               	movwf	___fladd@a+1
  4822     0E01  3000               	movlw	0
  4823     0E02  00F6               	movwf	___fladd@a
  4824     0E03                     l691:
  4825     0E03  082A               	movf	___fladd@bexp,w
  4826     0E04  0229               	subwf	___fladd@aexp,w
  4827     0E05  1803               	skipnc
  4828     0E06  2E08               	goto	u2061
  4829     0E07  2E09               	goto	u2060
  4830     0E08                     u2061:
  4831     0E08  2E2F               	goto	l2088
  4832     0E09                     u2060:
  4833     0E09                     l2054:
  4834     0E09  1F28               	btfss	___fladd@signs,6
  4835     0E0A  2E0C               	goto	u2071
  4836     0E0B  2E0D               	goto	u2070
  4837     0E0C                     u2071:
  4838     0E0C  2E11               	goto	l2058
  4839     0E0D                     u2070:
  4840     0E0D                     l2056:
  4841     0E0D  3080               	movlw	128
  4842     0E0E  00FF               	movwf	btemp+1
  4843     0E0F  087F               	movf	btemp+1,w
  4844     0E10  06A8               	xorwf	___fladd@signs,f
  4845     0E11                     l2058:
  4846     0E11  082A               	movf	___fladd@bexp,w
  4847     0E12  00AB               	movwf	___fladd@grs
  4848     0E13                     l2060:
  4849     0E13  0829               	movf	___fladd@aexp,w
  4850     0E14  00AA               	movwf	___fladd@bexp
  4851     0E15                     l2062:
  4852     0E15  082B               	movf	___fladd@grs,w
  4853     0E16  00A9               	movwf	___fladd@aexp
  4854     0E17                     l2064:
  4855     0E17  0872               	movf	___fladd@b,w
  4856     0E18  00AB               	movwf	___fladd@grs
  4857     0E19                     l2066:
  4858     0E19  0876               	movf	___fladd@a,w
  4859     0E1A  00F2               	movwf	___fladd@b
  4860     0E1B                     l2068:
  4861     0E1B  082B               	movf	___fladd@grs,w
  4862     0E1C  00F6               	movwf	___fladd@a
  4863     0E1D                     l2070:
  4864     0E1D  0873               	movf	___fladd@b+1,w
  4865     0E1E  00AB               	movwf	___fladd@grs
  4866     0E1F                     l2072:
  4867     0E1F  0877               	movf	___fladd@a+1,w
  4868     0E20  00F3               	movwf	___fladd@b+1
  4869     0E21                     l2074:
  4870     0E21  082B               	movf	___fladd@grs,w
  4871     0E22  00F7               	movwf	___fladd@a+1
  4872     0E23                     l2076:
  4873     0E23  0874               	movf	___fladd@b+2,w
  4874     0E24  00AB               	movwf	___fladd@grs
  4875     0E25                     l2078:
  4876     0E25  0878               	movf	___fladd@a+2,w
  4877     0E26  00F4               	movwf	___fladd@b+2
  4878     0E27                     l2080:
  4879     0E27  082B               	movf	___fladd@grs,w
  4880     0E28  00F8               	movwf	___fladd@a+2
  4881     0E29                     l2082:
  4882     0E29  0875               	movf	___fladd@b+3,w
  4883     0E2A  00AB               	movwf	___fladd@grs
  4884     0E2B                     l2084:
  4885     0E2B  0879               	movf	___fladd@a+3,w
  4886     0E2C  00F5               	movwf	___fladd@b+3
  4887     0E2D                     l2086:
  4888     0E2D  082B               	movf	___fladd@grs,w
  4889     0E2E  00F9               	movwf	___fladd@a+3
  4890     0E2F                     l2088:
  4891     0E2F  01AB               	clrf	___fladd@grs
  4892     0E30                     l2090:
  4893     0E30  0829               	movf	___fladd@aexp,w
  4894     0E31  00A0               	movwf	??___fladd
  4895     0E32  01A1               	clrf	??___fladd+1
  4896     0E33  0821               	movf	??___fladd+1,w
  4897     0E34  00A3               	movwf	??___fladd+3
  4898     0E35  082A               	movf	___fladd@bexp,w
  4899     0E36  0220               	subwf	??___fladd,w
  4900     0E37  00A2               	movwf	??___fladd+2
  4901     0E38  1C03               	skipc
  4902     0E39  03A3               	decf	??___fladd+3,f
  4903     0E3A  0823               	movf	??___fladd+3,w
  4904     0E3B  3A80               	xorlw	128
  4905     0E3C  00FF               	movwf	btemp+1
  4906     0E3D  3080               	movlw	128
  4907     0E3E  027F               	subwf	btemp+1,w
  4908     0E3F  1D03               	skipz
  4909     0E40  2E43               	goto	u2085
  4910     0E41  301A               	movlw	26
  4911     0E42  0222               	subwf	??___fladd+2,w
  4912     0E43                     u2085:
  4913     0E43  1C03               	skipc
  4914     0E44  2E46               	goto	u2081
  4915     0E45  2E47               	goto	u2080
  4916     0E46                     u2081:
  4917     0E46  2E7E               	goto	l2106
  4918     0E47                     u2080:
  4919     0E47                     l2092:
  4920     0E47  0875               	movf	___fladd@b+3,w
  4921     0E48  0474               	iorwf	___fladd@b+2,w
  4922     0E49  0473               	iorwf	___fladd@b+1,w
  4923     0E4A  0472               	iorwf	___fladd@b,w
  4924     0E4B  1D03               	skipz
  4925     0E4C  2E4E               	goto	u2091
  4926     0E4D  2E50               	goto	u2090
  4927     0E4E                     u2091:
  4928     0E4E  3001               	movlw	1
  4929     0E4F  2E51               	goto	u2100
  4930     0E50                     u2090:
  4931     0E50  3000               	movlw	0
  4932     0E51                     u2100:
  4933     0E51  1283               	bcf	3,5	;RP0=0, select bank0
  4934     0E52  1303               	bcf	3,6	;RP1=0, select bank0
  4935     0E53  00AB               	movwf	___fladd@grs
  4936     0E54  3000               	movlw	0
  4937     0E55  00F5               	movwf	___fladd@b+3
  4938     0E56  3000               	movlw	0
  4939     0E57  00F4               	movwf	___fladd@b+2
  4940     0E58  3000               	movlw	0
  4941     0E59  00F3               	movwf	___fladd@b+1
  4942     0E5A  3000               	movlw	0
  4943     0E5B  00F2               	movwf	___fladd@b
  4944     0E5C  0829               	movf	___fladd@aexp,w
  4945     0E5D  00AA               	movwf	___fladd@bexp
  4946     0E5E  2E86               	goto	l695
  4947     0E5F                     l697:
  4948     0E5F  1C2B               	btfss	___fladd@grs,0
  4949     0E60  2E62               	goto	u2111
  4950     0E61  2E63               	goto	u2110
  4951     0E62                     u2111:
  4952     0E62  2E6A               	goto	l2096
  4953     0E63                     u2110:
  4954     0E63                     l2094:
  4955     0E63  082B               	movf	___fladd@grs,w
  4956     0E64  00A0               	movwf	??___fladd
  4957     0E65  1003               	clrc
  4958     0E66  0C20               	rrf	??___fladd,w
  4959     0E67  3801               	iorlw	1
  4960     0E68  00AB               	movwf	___fladd@grs
  4961     0E69  2E6C               	goto	l2098
  4962     0E6A                     l2096:
  4963     0E6A  1003               	clrc
  4964     0E6B  0CAB               	rrf	___fladd@grs,f
  4965     0E6C                     l2098:
  4966     0E6C  1C72               	btfss	___fladd@b,0
  4967     0E6D  2E6F               	goto	u2121
  4968     0E6E  2E70               	goto	u2120
  4969     0E6F                     u2121:
  4970     0E6F  2E71               	goto	l2102
  4971     0E70                     u2120:
  4972     0E70                     l2100:
  4973     0E70  17AB               	bsf	___fladd@grs,7
  4974     0E71                     l2102:
  4975     0E71  3001               	movlw	1
  4976     0E72  00A0               	movwf	??___fladd
  4977     0E73                     u2135:
  4978     0E73  0D75               	rlf	___fladd@b+3,w
  4979     0E74  0CF5               	rrf	___fladd@b+3,f
  4980     0E75  0CF4               	rrf	___fladd@b+2,f
  4981     0E76  0CF3               	rrf	___fladd@b+1,f
  4982     0E77  0CF2               	rrf	___fladd@b,f
  4983     0E78  0BA0               	decfsz	??___fladd& (0+127),f
  4984     0E79  2E73               	goto	u2135
  4985     0E7A                     l2104:
  4986     0E7A  3001               	movlw	1
  4987     0E7B  00FF               	movwf	btemp+1
  4988     0E7C  087F               	movf	btemp+1,w
  4989     0E7D  07AA               	addwf	___fladd@bexp,f
  4990     0E7E                     l2106:
  4991     0E7E  1283               	bcf	3,5	;RP0=0, select bank0
  4992     0E7F  1303               	bcf	3,6	;RP1=0, select bank0
  4993     0E80  0829               	movf	___fladd@aexp,w
  4994     0E81  022A               	subwf	___fladd@bexp,w
  4995     0E82  1C03               	skipc
  4996     0E83  2E85               	goto	u2141
  4997     0E84  2E86               	goto	u2140
  4998     0E85                     u2141:
  4999     0E85  2E5F               	goto	l697
  5000     0E86                     u2140:
  5001     0E86                     l695:
  5002     0E86  1B28               	btfsc	___fladd@signs,6
  5003     0E87  2E89               	goto	u2151
  5004     0E88  2E8A               	goto	u2150
  5005     0E89                     u2151:
  5006     0E89  2ED3               	goto	l2132
  5007     0E8A                     u2150:
  5008     0E8A                     l2108:
  5009     0E8A  082A               	movf	___fladd@bexp,w
  5010     0E8B  1D03               	btfss	3,2
  5011     0E8C  2E8E               	goto	u2161
  5012     0E8D  2E8F               	goto	u2160
  5013     0E8E                     u2161:
  5014     0E8E  2E98               	goto	l2114
  5015     0E8F                     u2160:
  5016     0E8F                     l2110:
  5017     0E8F  3000               	movlw	0
  5018     0E90  00F5               	movwf	?___fladd+3
  5019     0E91  3000               	movlw	0
  5020     0E92  00F4               	movwf	?___fladd+2
  5021     0E93  3000               	movlw	0
  5022     0E94  00F3               	movwf	?___fladd+1
  5023     0E95  3000               	movlw	0
  5024     0E96  00F2               	movwf	?___fladd
  5025     0E97  2FFF               	goto	l704
  5026     0E98                     l2114:
  5027     0E98  0876               	movf	___fladd@a,w
  5028     0E99  07F2               	addwf	___fladd@b,f
  5029     0E9A  0877               	movf	___fladd@a+1,w
  5030     0E9B  1103               	clrz
  5031     0E9C  1803               	skipnc
  5032     0E9D  3E01               	addlw	1
  5033     0E9E  1903               	skipnz
  5034     0E9F  2EA1               	goto	u2171
  5035     0EA0  07F3               	addwf	___fladd@b+1,f
  5036     0EA1                     u2171:
  5037     0EA1  0878               	movf	___fladd@a+2,w
  5038     0EA2  1103               	clrz
  5039     0EA3  1803               	skipnc
  5040     0EA4  3E01               	addlw	1
  5041     0EA5  1903               	skipnz
  5042     0EA6  2EA8               	goto	u2172
  5043     0EA7  07F4               	addwf	___fladd@b+2,f
  5044     0EA8                     u2172:
  5045     0EA8  0879               	movf	___fladd@a+3,w
  5046     0EA9  1103               	clrz
  5047     0EAA  1803               	skipnc
  5048     0EAB  3E01               	addlw	1
  5049     0EAC  1903               	skipnz
  5050     0EAD  2EAF               	goto	u2173
  5051     0EAE  07F5               	addwf	___fladd@b+3,f
  5052     0EAF                     u2173:
  5053     0EAF                     l2116:
  5054     0EAF  1C75               	btfss	___fladd@b+3,0
  5055     0EB0  2EB2               	goto	u2181
  5056     0EB1  2EB3               	goto	u2180
  5057     0EB2                     u2181:
  5058     0EB2  2F87               	goto	l2168
  5059     0EB3                     u2180:
  5060     0EB3                     l2118:
  5061     0EB3  1C2B               	btfss	___fladd@grs,0
  5062     0EB4  2EB6               	goto	u2191
  5063     0EB5  2EB7               	goto	u2190
  5064     0EB6                     u2191:
  5065     0EB6  2EBE               	goto	l2122
  5066     0EB7                     u2190:
  5067     0EB7                     l2120:
  5068     0EB7  082B               	movf	___fladd@grs,w
  5069     0EB8  00A0               	movwf	??___fladd
  5070     0EB9  1003               	clrc
  5071     0EBA  0C20               	rrf	??___fladd,w
  5072     0EBB  3801               	iorlw	1
  5073     0EBC  00AB               	movwf	___fladd@grs
  5074     0EBD  2EC0               	goto	l2124
  5075     0EBE                     l2122:
  5076     0EBE  1003               	clrc
  5077     0EBF  0CAB               	rrf	___fladd@grs,f
  5078     0EC0                     l2124:
  5079     0EC0  1C72               	btfss	___fladd@b,0
  5080     0EC1  2EC3               	goto	u2201
  5081     0EC2  2EC4               	goto	u2200
  5082     0EC3                     u2201:
  5083     0EC3  2EC5               	goto	l2128
  5084     0EC4                     u2200:
  5085     0EC4                     l2126:
  5086     0EC4  17AB               	bsf	___fladd@grs,7
  5087     0EC5                     l2128:
  5088     0EC5  3001               	movlw	1
  5089     0EC6  00A0               	movwf	??___fladd
  5090     0EC7                     u2215:
  5091     0EC7  0D75               	rlf	___fladd@b+3,w
  5092     0EC8  0CF5               	rrf	___fladd@b+3,f
  5093     0EC9  0CF4               	rrf	___fladd@b+2,f
  5094     0ECA  0CF3               	rrf	___fladd@b+1,f
  5095     0ECB  0CF2               	rrf	___fladd@b,f
  5096     0ECC  0BA0               	decfsz	??___fladd& (0+127),f
  5097     0ECD  2EC7               	goto	u2215
  5098     0ECE                     l2130:
  5099     0ECE  3001               	movlw	1
  5100     0ECF  00FF               	movwf	btemp+1
  5101     0ED0  087F               	movf	btemp+1,w
  5102     0ED1  07AA               	addwf	___fladd@bexp,f
  5103     0ED2  2F87               	goto	l2168
  5104     0ED3                     l2132:
  5105     0ED3  0875               	movf	___fladd@b+3,w
  5106     0ED4  3A80               	xorlw	128
  5107     0ED5  00FF               	movwf	btemp+1
  5108     0ED6  0879               	movf	___fladd@a+3,w
  5109     0ED7  3A80               	xorlw	128
  5110     0ED8  027F               	subwf	btemp+1,w
  5111     0ED9  1D03               	skipz
  5112     0EDA  2EE5               	goto	u2223
  5113     0EDB  0878               	movf	___fladd@a+2,w
  5114     0EDC  0274               	subwf	___fladd@b+2,w
  5115     0EDD  1D03               	skipz
  5116     0EDE  2EE5               	goto	u2223
  5117     0EDF  0877               	movf	___fladd@a+1,w
  5118     0EE0  0273               	subwf	___fladd@b+1,w
  5119     0EE1  1D03               	skipz
  5120     0EE2  2EE5               	goto	u2223
  5121     0EE3  0876               	movf	___fladd@a,w
  5122     0EE4  0272               	subwf	___fladd@b,w
  5123     0EE5                     u2223:
  5124     0EE5  1803               	skipnc
  5125     0EE6  2EE8               	goto	u2221
  5126     0EE7  2EE9               	goto	u2220
  5127     0EE8                     u2221:
  5128     0EE8  2F41               	goto	l2144
  5129     0EE9                     u2220:
  5130     0EE9                     l2134:
  5131     0EE9  30FF               	movlw	255
  5132     0EEA  00A0               	movwf	??___fladd
  5133     0EEB  30FF               	movlw	255
  5134     0EEC  00A1               	movwf	??___fladd+1
  5135     0EED  30FF               	movlw	255
  5136     0EEE  00A2               	movwf	??___fladd+2
  5137     0EEF  30FF               	movlw	255
  5138     0EF0  00A3               	movwf	??___fladd+3
  5139     0EF1  0876               	movf	___fladd@a,w
  5140     0EF2  00A4               	movwf	??___fladd+4
  5141     0EF3  0877               	movf	___fladd@a+1,w
  5142     0EF4  00A5               	movwf	??___fladd+5
  5143     0EF5  0878               	movf	___fladd@a+2,w
  5144     0EF6  00A6               	movwf	??___fladd+6
  5145     0EF7  0879               	movf	___fladd@a+3,w
  5146     0EF8  00A7               	movwf	??___fladd+7
  5147     0EF9  0872               	movf	___fladd@b,w
  5148     0EFA  02A4               	subwf	??___fladd+4,f
  5149     0EFB  0873               	movf	___fladd@b+1,w
  5150     0EFC  1C03               	skipc
  5151     0EFD  0F73               	incfsz	___fladd@b+1,w
  5152     0EFE  2F00               	goto	u2231
  5153     0EFF  2F01               	goto	u2232
  5154     0F00                     u2231:
  5155     0F00  02A5               	subwf	??___fladd+5,f
  5156     0F01                     u2232:
  5157     0F01  0874               	movf	___fladd@b+2,w
  5158     0F02  1C03               	skipc
  5159     0F03  0F74               	incfsz	___fladd@b+2,w
  5160     0F04  2F06               	goto	u2233
  5161     0F05  2F07               	goto	u2234
  5162     0F06                     u2233:
  5163     0F06  02A6               	subwf	??___fladd+6,f
  5164     0F07                     u2234:
  5165     0F07  0875               	movf	___fladd@b+3,w
  5166     0F08  1C03               	skipc
  5167     0F09  0F75               	incfsz	___fladd@b+3,w
  5168     0F0A  2F0C               	goto	u2235
  5169     0F0B  2F0D               	goto	u2236
  5170     0F0C                     u2235:
  5171     0F0C  02A7               	subwf	??___fladd+7,f
  5172     0F0D                     u2236:
  5173     0F0D  0824               	movf	??___fladd+4,w
  5174     0F0E  07A0               	addwf	??___fladd,f
  5175     0F0F  0825               	movf	??___fladd+5,w
  5176     0F10  1803               	skipnc
  5177     0F11  0F25               	incfsz	??___fladd+5,w
  5178     0F12  2F14               	goto	u2240
  5179     0F13  2F15               	goto	u2241
  5180     0F14                     u2240:
  5181     0F14  07A1               	addwf	??___fladd+1,f
  5182     0F15                     u2241:
  5183     0F15  0826               	movf	??___fladd+6,w
  5184     0F16  1803               	skipnc
  5185     0F17  0F26               	incfsz	??___fladd+6,w
  5186     0F18  2F1A               	goto	u2242
  5187     0F19  2F1B               	goto	u2243
  5188     0F1A                     u2242:
  5189     0F1A  07A2               	addwf	??___fladd+2,f
  5190     0F1B                     u2243:
  5191     0F1B  0827               	movf	??___fladd+7,w
  5192     0F1C  1803               	skipnc
  5193     0F1D  0A27               	incf	??___fladd+7,w
  5194     0F1E  07A3               	addwf	??___fladd+3,f
  5195     0F1F  0823               	movf	??___fladd+3,w
  5196     0F20  00F5               	movwf	___fladd@b+3
  5197     0F21  0822               	movf	??___fladd+2,w
  5198     0F22  00F4               	movwf	___fladd@b+2
  5199     0F23  0821               	movf	??___fladd+1,w
  5200     0F24  00F3               	movwf	___fladd@b+1
  5201     0F25  0820               	movf	??___fladd,w
  5202     0F26  00F2               	movwf	___fladd@b
  5203     0F27                     l2136:
  5204     0F27  3080               	movlw	128
  5205     0F28  00FF               	movwf	btemp+1
  5206     0F29  087F               	movf	btemp+1,w
  5207     0F2A  06A8               	xorwf	___fladd@signs,f
  5208     0F2B                     l2138:
  5209     0F2B  09AB               	comf	___fladd@grs,f
  5210     0F2C  0AAB               	incf	___fladd@grs,f
  5211     0F2D                     l2140:
  5212     0F2D  082B               	movf	___fladd@grs,w
  5213     0F2E  1D03               	btfss	3,2
  5214     0F2F  2F31               	goto	u2251
  5215     0F30  2F32               	goto	u2250
  5216     0F31                     u2251:
  5217     0F31  2F4F               	goto	l712
  5218     0F32                     u2250:
  5219     0F32                     l2142:
  5220     0F32  3001               	movlw	1
  5221     0F33  07F2               	addwf	___fladd@b,f
  5222     0F34  3000               	movlw	0
  5223     0F35  1803               	skipnc
  5224     0F36  3001               	movlw	1
  5225     0F37  07F3               	addwf	___fladd@b+1,f
  5226     0F38  3000               	movlw	0
  5227     0F39  1803               	skipnc
  5228     0F3A  3001               	movlw	1
  5229     0F3B  07F4               	addwf	___fladd@b+2,f
  5230     0F3C  3000               	movlw	0
  5231     0F3D  1803               	skipnc
  5232     0F3E  3001               	movlw	1
  5233     0F3F  07F5               	addwf	___fladd@b+3,f
  5234     0F40  2F4F               	goto	l712
  5235     0F41                     l2144:
  5236     0F41  0876               	movf	___fladd@a,w
  5237     0F42  02F2               	subwf	___fladd@b,f
  5238     0F43  0877               	movf	___fladd@a+1,w
  5239     0F44  1C03               	skipc
  5240     0F45  0F77               	incfsz	___fladd@a+1,w
  5241     0F46  02F3               	subwf	___fladd@b+1,f
  5242     0F47  0878               	movf	___fladd@a+2,w
  5243     0F48  1C03               	skipc
  5244     0F49  0F78               	incfsz	___fladd@a+2,w
  5245     0F4A  02F4               	subwf	___fladd@b+2,f
  5246     0F4B  0879               	movf	___fladd@a+3,w
  5247     0F4C  1C03               	skipc
  5248     0F4D  0F79               	incfsz	___fladd@a+3,w
  5249     0F4E  02F5               	subwf	___fladd@b+3,f
  5250     0F4F                     l712:
  5251     0F4F  0875               	movf	___fladd@b+3,w
  5252     0F50  0474               	iorwf	___fladd@b+2,w
  5253     0F51  0473               	iorwf	___fladd@b+1,w
  5254     0F52  0472               	iorwf	___fladd@b,w
  5255     0F53  1D03               	skipz
  5256     0F54  2F56               	goto	u2261
  5257     0F55  2F57               	goto	u2260
  5258     0F56                     u2261:
  5259     0F56  2F83               	goto	l2166
  5260     0F57                     u2260:
  5261     0F57                     l2146:
  5262     0F57  082B               	movf	___fladd@grs,w
  5263     0F58  1D03               	btfss	3,2
  5264     0F59  2F5B               	goto	u2271
  5265     0F5A  2F5C               	goto	u2270
  5266     0F5B                     u2271:
  5267     0F5B  2F83               	goto	l2166
  5268     0F5C                     u2270:
  5269     0F5C                     l2148:
  5270     0F5C  3000               	movlw	0
  5271     0F5D  00F5               	movwf	?___fladd+3
  5272     0F5E  3000               	movlw	0
  5273     0F5F  00F4               	movwf	?___fladd+2
  5274     0F60  3000               	movlw	0
  5275     0F61  00F3               	movwf	?___fladd+1
  5276     0F62  3000               	movlw	0
  5277     0F63  00F2               	movwf	?___fladd
  5278     0F64  2FFF               	goto	l704
  5279     0F65                     l2152:
  5280     0F65  3001               	movlw	1
  5281     0F66  00A0               	movwf	??___fladd
  5282     0F67                     u2285:
  5283     0F67  1003               	clrc
  5284     0F68  0DF2               	rlf	___fladd@b,f
  5285     0F69  0DF3               	rlf	___fladd@b+1,f
  5286     0F6A  0DF4               	rlf	___fladd@b+2,f
  5287     0F6B  0DF5               	rlf	___fladd@b+3,f
  5288     0F6C  0BA0               	decfsz	??___fladd,f
  5289     0F6D  2F67               	goto	u2285
  5290     0F6E                     l2154:
  5291     0F6E  1FAB               	btfss	___fladd@grs,7
  5292     0F6F  2F71               	goto	u2291
  5293     0F70  2F72               	goto	u2290
  5294     0F71                     u2291:
  5295     0F71  2F73               	goto	l716
  5296     0F72                     u2290:
  5297     0F72                     l2156:
  5298     0F72  1472               	bsf	___fladd@b,0
  5299     0F73                     l716:
  5300     0F73  1C2B               	btfss	___fladd@grs,0
  5301     0F74  2F76               	goto	u2301
  5302     0F75  2F77               	goto	u2300
  5303     0F76                     u2301:
  5304     0F76  2F7A               	goto	l2160
  5305     0F77                     u2300:
  5306     0F77                     l2158:
  5307     0F77  1403               	setc
  5308     0F78  0DAB               	rlf	___fladd@grs,f
  5309     0F79  2F7C               	goto	l2162
  5310     0F7A                     l2160:
  5311     0F7A  1003               	clrc
  5312     0F7B  0DAB               	rlf	___fladd@grs,f
  5313     0F7C                     l2162:
  5314     0F7C  082A               	movf	___fladd@bexp,w
  5315     0F7D  1903               	btfsc	3,2
  5316     0F7E  2F80               	goto	u2311
  5317     0F7F  2F81               	goto	u2310
  5318     0F80                     u2311:
  5319     0F80  2F83               	goto	l2166
  5320     0F81                     u2310:
  5321     0F81                     l2164:
  5322     0F81  3001               	movlw	1
  5323     0F82  02AA               	subwf	___fladd@bexp,f
  5324     0F83                     l2166:
  5325     0F83  1FF4               	btfss	___fladd@b+2,7
  5326     0F84  2F86               	goto	u2321
  5327     0F85  2F87               	goto	u2320
  5328     0F86                     u2321:
  5329     0F86  2F65               	goto	l2152
  5330     0F87                     u2320:
  5331     0F87                     l2168:
  5332     0F87  01A9               	clrf	___fladd@aexp
  5333     0F88                     l2170:
  5334     0F88  1FAB               	btfss	___fladd@grs,7
  5335     0F89  2F8B               	goto	u2331
  5336     0F8A  2F8C               	goto	u2330
  5337     0F8B                     u2331:
  5338     0F8B  2F9A               	goto	l2178
  5339     0F8C                     u2330:
  5340     0F8C                     l2172:
  5341     0F8C  082B               	movf	___fladd@grs,w
  5342     0F8D  397F               	andlw	127
  5343     0F8E  1903               	btfsc	3,2
  5344     0F8F  2F91               	goto	u2341
  5345     0F90  2F92               	goto	u2340
  5346     0F91                     u2341:
  5347     0F91  2F95               	goto	l722
  5348     0F92                     u2340:
  5349     0F92                     l2174:
  5350     0F92  01A9               	clrf	___fladd@aexp
  5351     0F93  0AA9               	incf	___fladd@aexp,f
  5352     0F94  2F9A               	goto	l2178
  5353     0F95                     l722:
  5354     0F95  1C72               	btfss	___fladd@b,0
  5355     0F96  2F98               	goto	u2351
  5356     0F97  2F99               	goto	u2350
  5357     0F98                     u2351:
  5358     0F98  2F9A               	goto	l2178
  5359     0F99                     u2350:
  5360     0F99  2F92               	goto	l2174
  5361     0F9A                     l2178:
  5362     0F9A  0829               	movf	___fladd@aexp,w
  5363     0F9B  1903               	btfsc	3,2
  5364     0F9C  2F9E               	goto	u2361
  5365     0F9D  2F9F               	goto	u2360
  5366     0F9E                     u2361:
  5367     0F9E  2FD3               	goto	l2188
  5368     0F9F                     u2360:
  5369     0F9F                     l2180:
  5370     0F9F  3001               	movlw	1
  5371     0FA0  07F2               	addwf	___fladd@b,f
  5372     0FA1  3000               	movlw	0
  5373     0FA2  1803               	skipnc
  5374     0FA3  3001               	movlw	1
  5375     0FA4  07F3               	addwf	___fladd@b+1,f
  5376     0FA5  3000               	movlw	0
  5377     0FA6  1803               	skipnc
  5378     0FA7  3001               	movlw	1
  5379     0FA8  07F4               	addwf	___fladd@b+2,f
  5380     0FA9  3000               	movlw	0
  5381     0FAA  1803               	skipnc
  5382     0FAB  3001               	movlw	1
  5383     0FAC  07F5               	addwf	___fladd@b+3,f
  5384     0FAD                     l2182:
  5385     0FAD  1C75               	btfss	___fladd@b+3,0
  5386     0FAE  2FB0               	goto	u2371
  5387     0FAF  2FB1               	goto	u2370
  5388     0FB0                     u2371:
  5389     0FB0  2FD3               	goto	l2188
  5390     0FB1                     u2370:
  5391     0FB1                     l2184:
  5392     0FB1  0872               	movf	___fladd@b,w
  5393     0FB2  00A0               	movwf	??___fladd
  5394     0FB3  0873               	movf	___fladd@b+1,w
  5395     0FB4  00A1               	movwf	??___fladd+1
  5396     0FB5  0874               	movf	___fladd@b+2,w
  5397     0FB6  00A2               	movwf	??___fladd+2
  5398     0FB7  0875               	movf	___fladd@b+3,w
  5399     0FB8  00A3               	movwf	??___fladd+3
  5400     0FB9  3001               	movlw	1
  5401     0FBA  00A4               	movwf	??___fladd+4
  5402     0FBB                     u2385:
  5403     0FBB  0D23               	rlf	??___fladd+3,w
  5404     0FBC  0CA3               	rrf	??___fladd+3,f
  5405     0FBD  0CA2               	rrf	??___fladd+2,f
  5406     0FBE  0CA1               	rrf	??___fladd+1,f
  5407     0FBF  0CA0               	rrf	??___fladd,f
  5408     0FC0                     u2380:
  5409     0FC0  0BA4               	decfsz	??___fladd+4,f
  5410     0FC1  2FBB               	goto	u2385
  5411     0FC2  0823               	movf	??___fladd+3,w
  5412     0FC3  00F5               	movwf	___fladd@b+3
  5413     0FC4  0822               	movf	??___fladd+2,w
  5414     0FC5  00F4               	movwf	___fladd@b+2
  5415     0FC6  0821               	movf	??___fladd+1,w
  5416     0FC7  00F3               	movwf	___fladd@b+1
  5417     0FC8  0820               	movf	??___fladd,w
  5418     0FC9  00F2               	movwf	___fladd@b
  5419     0FCA  0A2A               	incf	___fladd@bexp,w
  5420     0FCB  1903               	btfsc	3,2
  5421     0FCC  2FCE               	goto	u2391
  5422     0FCD  2FCF               	goto	u2390
  5423     0FCE                     u2391:
  5424     0FCE  2FD3               	goto	l2188
  5425     0FCF                     u2390:
  5426     0FCF                     l2186:
  5427     0FCF  3001               	movlw	1
  5428     0FD0  00FF               	movwf	btemp+1
  5429     0FD1  087F               	movf	btemp+1,w
  5430     0FD2  07AA               	addwf	___fladd@bexp,f
  5431     0FD3                     l2188:
  5432     0FD3  0A2A               	incf	___fladd@bexp,w
  5433     0FD4  1903               	btfsc	3,2
  5434     0FD5  2FD7               	goto	u2401
  5435     0FD6  2FD8               	goto	u2400
  5436     0FD7                     u2401:
  5437     0FD7  2FDD               	goto	l2192
  5438     0FD8                     u2400:
  5439     0FD8                     l2190:
  5440     0FD8  082A               	movf	___fladd@bexp,w
  5441     0FD9  1D03               	btfss	3,2
  5442     0FDA  2FDC               	goto	u2411
  5443     0FDB  2FDD               	goto	u2410
  5444     0FDC                     u2411:
  5445     0FDC  2FEB               	goto	l2198
  5446     0FDD                     u2410:
  5447     0FDD                     l2192:
  5448     0FDD  3000               	movlw	0
  5449     0FDE  00F5               	movwf	___fladd@b+3
  5450     0FDF  3000               	movlw	0
  5451     0FE0  00F4               	movwf	___fladd@b+2
  5452     0FE1  3000               	movlw	0
  5453     0FE2  00F3               	movwf	___fladd@b+1
  5454     0FE3  3000               	movlw	0
  5455     0FE4  00F2               	movwf	___fladd@b
  5456     0FE5                     l2194:
  5457     0FE5  082A               	movf	___fladd@bexp,w
  5458     0FE6  1D03               	btfss	3,2
  5459     0FE7  2FE9               	goto	u2421
  5460     0FE8  2FEA               	goto	u2420
  5461     0FE9                     u2421:
  5462     0FE9  2FEB               	goto	l2198
  5463     0FEA                     u2420:
  5464     0FEA                     l2196:
  5465     0FEA  01A8               	clrf	___fladd@signs
  5466     0FEB                     l2198:
  5467     0FEB  1C2A               	btfss	___fladd@bexp,0
  5468     0FEC  2FEE               	goto	u2431
  5469     0FED  2FEF               	goto	u2430
  5470     0FEE                     u2431:
  5471     0FEE  2FF1               	goto	l2202
  5472     0FEF                     u2430:
  5473     0FEF                     l2200:
  5474     0FEF  17F4               	bsf	___fladd@b+2,7
  5475     0FF0  2FF5               	goto	l2204
  5476     0FF1                     l2202:
  5477     0FF1  307F               	movlw	127
  5478     0FF2  00FF               	movwf	btemp+1
  5479     0FF3  087F               	movf	btemp+1,w
  5480     0FF4  05F4               	andwf	___fladd@b+2,f
  5481     0FF5                     l2204:
  5482     0FF5  082A               	movf	___fladd@bexp,w
  5483     0FF6  00A0               	movwf	??___fladd
  5484     0FF7  1003               	clrc
  5485     0FF8  0C20               	rrf	??___fladd,w
  5486     0FF9  00F5               	movwf	___fladd@b+3
  5487     0FFA                     l2206:
  5488     0FFA  1FA8               	btfss	___fladd@signs,7
  5489     0FFB  2FFD               	goto	u2441
  5490     0FFC  2FFE               	goto	u2440
  5491     0FFD                     u2441:
  5492     0FFD  2FFF               	goto	l734
  5493     0FFE                     u2440:
  5494     0FFE                     l2208:
  5495     0FFE  17F5               	bsf	___fladd@b+3,7
  5496     0FFF                     l734:
  5497     0FFF                     l704:
  5498     0FFF  0008               	return
  5499     1000                     __end_of___fladd:
  5500                           
  5501                           	psect	text11
  5502     03D9                     __ptext11:	
  5503 ;; *************** function ___flmul *****************
  5504 ;; Defined at:
  5505 ;;		line 8 in file "C:\Program Files\Microchip\xc8\v2.46\pic\sources\c99\common\sprcmul.c"
  5506 ;; Parameters:    Size  Location     Type
  5507 ;;  b               4    6[BANK0 ] unsigned char 
  5508 ;;  a               4   10[BANK0 ] unsigned char 
  5509 ;; Auto vars:     Size  Location     Type
  5510 ;;  prod            4   26[BANK0 ] struct .
  5511 ;;  grs             4   21[BANK0 ] unsigned long 
  5512 ;;  temp            2   30[BANK0 ] struct .
  5513 ;;  bexp            1   25[BANK0 ] unsigned char 
  5514 ;;  aexp            1   20[BANK0 ] unsigned char 
  5515 ;;  sign            1   19[BANK0 ] unsigned char 
  5516 ;; Return value:  Size  Location     Type
  5517 ;;                  4    6[BANK0 ] unsigned char 
  5518 ;; Registers used:
  5519 ;;		wreg, status,2, status,0, btemp+1, pclath, cstack
  5520 ;; Tracked objects:
  5521 ;;		On entry : 0/0
  5522 ;;		On exit  : 0/0
  5523 ;;		Unchanged: 0/0
  5524 ;; Data sizes:     COMMON   BANK0   BANK1   BANK3   BANK2
  5525 ;;      Params:         0       8       0       0       0
  5526 ;;      Locals:         0      13       0       0       0
  5527 ;;      Temps:          0       5       0       0       0
  5528 ;;      Totals:         0      26       0       0       0
  5529 ;;Total ram usage:       26 bytes
  5530 ;; Hardware stack levels used: 1
  5531 ;; Hardware stack levels required when called: 2
  5532 ;; This function calls:
  5533 ;;		__Umul8_16
  5534 ;; This function is called by:
  5535 ;;		_run_program
  5536 ;; This function uses a non-reentrant model
  5537 ;;
  5538                           
  5539     03D9                     ___flmul:	
  5540                           ;psect for function ___flmul
  5541                           
  5542     03D9                     l3180:	
  5543                           ;incstack = 0
  5544                           ; Regs used in ___flmul: [wreg+status,2+status,0+btemp+1+pclath+cstack]
  5545                           
  5546     03D9  1283               	bcf	3,5	;RP0=0, select bank0
  5547     03DA  1303               	bcf	3,6	;RP1=0, select bank0
  5548     03DB  0829               	movf	___flmul@b+3,w
  5549     03DC  3980               	andlw	128
  5550     03DD  00B3               	movwf	___flmul@sign
  5551     03DE                     l3182:
  5552     03DE  0829               	movf	___flmul@b+3,w
  5553     03DF  00AE               	movwf	??___flmul
  5554     03E0  072E               	addwf	??___flmul,w
  5555     03E1  00B9               	movwf	___flmul@bexp
  5556     03E2                     l3184:
  5557     03E2  1FA8               	btfss	___flmul@b+2,7
  5558     03E3  2BE5               	goto	u3991
  5559     03E4  2BE6               	goto	u3990
  5560     03E5                     u3991:
  5561     03E5  2BE7               	goto	l3188
  5562     03E6                     u3990:
  5563     03E6                     l3186:
  5564     03E6  1439               	bsf	___flmul@bexp,0
  5565     03E7                     l3188:
  5566     03E7  0839               	movf	___flmul@bexp,w
  5567     03E8  1903               	btfsc	3,2
  5568     03E9  2BEB               	goto	u4001
  5569     03EA  2BEC               	goto	u4000
  5570     03EB                     u4001:
  5571     03EB  2BFB               	goto	l3196
  5572     03EC                     u4000:
  5573     03EC                     l3190:
  5574     03EC  0A39               	incf	___flmul@bexp,w
  5575     03ED  1D03               	btfss	3,2
  5576     03EE  2BF0               	goto	u4011
  5577     03EF  2BF1               	goto	u4010
  5578     03F0                     u4011:
  5579     03F0  2BF9               	goto	l3194
  5580     03F1                     u4010:
  5581     03F1                     l3192:
  5582     03F1  3000               	movlw	0
  5583     03F2  00A9               	movwf	___flmul@b+3
  5584     03F3  3000               	movlw	0
  5585     03F4  00A8               	movwf	___flmul@b+2
  5586     03F5  3000               	movlw	0
  5587     03F6  00A7               	movwf	___flmul@b+1
  5588     03F7  3000               	movlw	0
  5589     03F8  00A6               	movwf	___flmul@b
  5590     03F9                     l3194:
  5591     03F9  17A8               	bsf	___flmul@b+2,7
  5592     03FA  2C03               	goto	l3198
  5593     03FB                     l3196:
  5594     03FB  3000               	movlw	0
  5595     03FC  00A9               	movwf	___flmul@b+3
  5596     03FD  3000               	movlw	0
  5597     03FE  00A8               	movwf	___flmul@b+2
  5598     03FF  3000               	movlw	0
  5599     0400  00A7               	movwf	___flmul@b+1
  5600     0401  3000               	movlw	0
  5601     0402  00A6               	movwf	___flmul@b
  5602     0403                     l3198:
  5603     0403  082D               	movf	___flmul@a+3,w
  5604     0404  3980               	andlw	128
  5605     0405  00FF               	movwf	btemp+1
  5606     0406  087F               	movf	btemp+1,w
  5607     0407  06B3               	xorwf	___flmul@sign,f
  5608     0408                     l3200:
  5609     0408  082D               	movf	___flmul@a+3,w
  5610     0409  00AE               	movwf	??___flmul
  5611     040A  072E               	addwf	??___flmul,w
  5612     040B  00B4               	movwf	___flmul@aexp
  5613     040C                     l3202:
  5614     040C  1FAC               	btfss	___flmul@a+2,7
  5615     040D  2C0F               	goto	u4021
  5616     040E  2C10               	goto	u4020
  5617     040F                     u4021:
  5618     040F  2C11               	goto	l3206
  5619     0410                     u4020:
  5620     0410                     l3204:
  5621     0410  1434               	bsf	___flmul@aexp,0
  5622     0411                     l3206:
  5623     0411  0834               	movf	___flmul@aexp,w
  5624     0412  1903               	btfsc	3,2
  5625     0413  2C15               	goto	u4031
  5626     0414  2C16               	goto	u4030
  5627     0415                     u4031:
  5628     0415  2C25               	goto	l3214
  5629     0416                     u4030:
  5630     0416                     l3208:
  5631     0416  0A34               	incf	___flmul@aexp,w
  5632     0417  1D03               	btfss	3,2
  5633     0418  2C1A               	goto	u4041
  5634     0419  2C1B               	goto	u4040
  5635     041A                     u4041:
  5636     041A  2C23               	goto	l3212
  5637     041B                     u4040:
  5638     041B                     l3210:
  5639     041B  3000               	movlw	0
  5640     041C  00AD               	movwf	___flmul@a+3
  5641     041D  3000               	movlw	0
  5642     041E  00AC               	movwf	___flmul@a+2
  5643     041F  3000               	movlw	0
  5644     0420  00AB               	movwf	___flmul@a+1
  5645     0421  3000               	movlw	0
  5646     0422  00AA               	movwf	___flmul@a
  5647     0423                     l3212:
  5648     0423  17AC               	bsf	___flmul@a+2,7
  5649     0424  2C2D               	goto	l3216
  5650     0425                     l3214:
  5651     0425  3000               	movlw	0
  5652     0426  00AD               	movwf	___flmul@a+3
  5653     0427  3000               	movlw	0
  5654     0428  00AC               	movwf	___flmul@a+2
  5655     0429  3000               	movlw	0
  5656     042A  00AB               	movwf	___flmul@a+1
  5657     042B  3000               	movlw	0
  5658     042C  00AA               	movwf	___flmul@a
  5659     042D                     l3216:
  5660     042D  0834               	movf	___flmul@aexp,w
  5661     042E  1903               	btfsc	3,2
  5662     042F  2C31               	goto	u4051
  5663     0430  2C32               	goto	u4050
  5664     0431                     u4051:
  5665     0431  2C37               	goto	l3220
  5666     0432                     u4050:
  5667     0432                     l3218:
  5668     0432  0839               	movf	___flmul@bexp,w
  5669     0433  1D03               	btfss	3,2
  5670     0434  2C36               	goto	u4061
  5671     0435  2C37               	goto	u4060
  5672     0436                     u4061:
  5673     0436  2C40               	goto	l3224
  5674     0437                     u4060:
  5675     0437                     l3220:
  5676     0437  3000               	movlw	0
  5677     0438  00A9               	movwf	?___flmul+3
  5678     0439  3000               	movlw	0
  5679     043A  00A8               	movwf	?___flmul+2
  5680     043B  3000               	movlw	0
  5681     043C  00A7               	movwf	?___flmul+1
  5682     043D  3000               	movlw	0
  5683     043E  00A6               	movwf	?___flmul
  5684     043F  2F1D               	goto	l787
  5685     0440                     l3224:
  5686     0440  0826               	movf	___flmul@b,w
  5687     0441  00F2               	movwf	__Umul8_16@multiplicand
  5688     0442  082C               	movf	___flmul@a+2,w
  5689     0443  160A  118A  25EC  120A  118A  	fcall	__Umul8_16
  5690     0448  0873               	movf	?__Umul8_16+1,w
  5691     0449  1283               	bcf	3,5	;RP0=0, select bank0
  5692     044A  1303               	bcf	3,6	;RP1=0, select bank0
  5693     044B  00BF               	movwf	___flmul@temp+1
  5694     044C  0872               	movf	?__Umul8_16,w
  5695     044D  00BE               	movwf	___flmul@temp
  5696     044E                     l3226:
  5697     044E  083E               	movf	___flmul@temp,w
  5698     044F  00AE               	movwf	??___flmul
  5699     0450  01AF               	clrf	??___flmul+1
  5700     0451  01B0               	clrf	??___flmul+2
  5701     0452  01B1               	clrf	??___flmul+3
  5702     0453  0831               	movf	??___flmul+3,w
  5703     0454  00B8               	movwf	___flmul@grs+3
  5704     0455  0830               	movf	??___flmul+2,w
  5705     0456  00B7               	movwf	___flmul@grs+2
  5706     0457  082F               	movf	??___flmul+1,w
  5707     0458  00B6               	movwf	___flmul@grs+1
  5708     0459  082E               	movf	??___flmul,w
  5709     045A  00B5               	movwf	___flmul@grs
  5710     045B                     l3228:
  5711     045B  083F               	movf	___flmul@temp+1,w
  5712     045C  00AE               	movwf	??___flmul
  5713     045D  01AF               	clrf	??___flmul+1
  5714     045E  01B0               	clrf	??___flmul+2
  5715     045F  01B1               	clrf	??___flmul+3
  5716     0460  0831               	movf	??___flmul+3,w
  5717     0461  00BD               	movwf	___flmul@prod+3
  5718     0462  0830               	movf	??___flmul+2,w
  5719     0463  00BC               	movwf	___flmul@prod+2
  5720     0464  082F               	movf	??___flmul+1,w
  5721     0465  00BB               	movwf	___flmul@prod+1
  5722     0466  082E               	movf	??___flmul,w
  5723     0467  00BA               	movwf	___flmul@prod
  5724     0468  0827               	movf	___flmul@b+1,w
  5725     0469  00F2               	movwf	__Umul8_16@multiplicand
  5726     046A  082B               	movf	___flmul@a+1,w
  5727     046B  160A  118A  25EC  120A  118A  	fcall	__Umul8_16
  5728     0470  0873               	movf	?__Umul8_16+1,w
  5729     0471  1283               	bcf	3,5	;RP0=0, select bank0
  5730     0472  1303               	bcf	3,6	;RP1=0, select bank0
  5731     0473  00BF               	movwf	___flmul@temp+1
  5732     0474  0872               	movf	?__Umul8_16,w
  5733     0475  00BE               	movwf	___flmul@temp
  5734     0476                     l3230:
  5735     0476  083E               	movf	___flmul@temp,w
  5736     0477  00AE               	movwf	??___flmul
  5737     0478  01AF               	clrf	??___flmul+1
  5738     0479  01B0               	clrf	??___flmul+2
  5739     047A  01B1               	clrf	??___flmul+3
  5740     047B  082E               	movf	??___flmul,w
  5741     047C  07B5               	addwf	___flmul@grs,f
  5742     047D  082F               	movf	??___flmul+1,w
  5743     047E  1103               	clrz
  5744     047F  1803               	skipnc
  5745     0480  3E01               	addlw	1
  5746     0481  1903               	skipnz
  5747     0482  2C84               	goto	u4071
  5748     0483  07B6               	addwf	___flmul@grs+1,f
  5749     0484                     u4071:
  5750     0484  0830               	movf	??___flmul+2,w
  5751     0485  1103               	clrz
  5752     0486  1803               	skipnc
  5753     0487  3E01               	addlw	1
  5754     0488  1903               	skipnz
  5755     0489  2C8B               	goto	u4072
  5756     048A  07B7               	addwf	___flmul@grs+2,f
  5757     048B                     u4072:
  5758     048B  0831               	movf	??___flmul+3,w
  5759     048C  1103               	clrz
  5760     048D  1803               	skipnc
  5761     048E  3E01               	addlw	1
  5762     048F  1903               	skipnz
  5763     0490  2C92               	goto	u4073
  5764     0491  07B8               	addwf	___flmul@grs+3,f
  5765     0492                     u4073:
  5766     0492                     l3232:
  5767     0492  083F               	movf	___flmul@temp+1,w
  5768     0493  00AE               	movwf	??___flmul
  5769     0494  01AF               	clrf	??___flmul+1
  5770     0495  01B0               	clrf	??___flmul+2
  5771     0496  01B1               	clrf	??___flmul+3
  5772     0497  082E               	movf	??___flmul,w
  5773     0498  07BA               	addwf	___flmul@prod,f
  5774     0499  082F               	movf	??___flmul+1,w
  5775     049A  1103               	clrz
  5776     049B  1803               	skipnc
  5777     049C  3E01               	addlw	1
  5778     049D  1903               	skipnz
  5779     049E  2CA0               	goto	u4081
  5780     049F  07BB               	addwf	___flmul@prod+1,f
  5781     04A0                     u4081:
  5782     04A0  0830               	movf	??___flmul+2,w
  5783     04A1  1103               	clrz
  5784     04A2  1803               	skipnc
  5785     04A3  3E01               	addlw	1
  5786     04A4  1903               	skipnz
  5787     04A5  2CA7               	goto	u4082
  5788     04A6  07BC               	addwf	___flmul@prod+2,f
  5789     04A7                     u4082:
  5790     04A7  0831               	movf	??___flmul+3,w
  5791     04A8  1103               	clrz
  5792     04A9  1803               	skipnc
  5793     04AA  3E01               	addlw	1
  5794     04AB  1903               	skipnz
  5795     04AC  2CAE               	goto	u4083
  5796     04AD  07BD               	addwf	___flmul@prod+3,f
  5797     04AE                     u4083:
  5798     04AE  0828               	movf	___flmul@b+2,w
  5799     04AF  00F2               	movwf	__Umul8_16@multiplicand
  5800     04B0  082A               	movf	___flmul@a,w
  5801     04B1  160A  118A  25EC  120A  118A  	fcall	__Umul8_16
  5802     04B6  0873               	movf	?__Umul8_16+1,w
  5803     04B7  1283               	bcf	3,5	;RP0=0, select bank0
  5804     04B8  1303               	bcf	3,6	;RP1=0, select bank0
  5805     04B9  00BF               	movwf	___flmul@temp+1
  5806     04BA  0872               	movf	?__Umul8_16,w
  5807     04BB  00BE               	movwf	___flmul@temp
  5808     04BC                     l3234:
  5809     04BC  083E               	movf	___flmul@temp,w
  5810     04BD  00AE               	movwf	??___flmul
  5811     04BE  01AF               	clrf	??___flmul+1
  5812     04BF  01B0               	clrf	??___flmul+2
  5813     04C0  01B1               	clrf	??___flmul+3
  5814     04C1  082E               	movf	??___flmul,w
  5815     04C2  07B5               	addwf	___flmul@grs,f
  5816     04C3  082F               	movf	??___flmul+1,w
  5817     04C4  1103               	clrz
  5818     04C5  1803               	skipnc
  5819     04C6  3E01               	addlw	1
  5820     04C7  1903               	skipnz
  5821     04C8  2CCA               	goto	u4091
  5822     04C9  07B6               	addwf	___flmul@grs+1,f
  5823     04CA                     u4091:
  5824     04CA  0830               	movf	??___flmul+2,w
  5825     04CB  1103               	clrz
  5826     04CC  1803               	skipnc
  5827     04CD  3E01               	addlw	1
  5828     04CE  1903               	skipnz
  5829     04CF  2CD1               	goto	u4092
  5830     04D0  07B7               	addwf	___flmul@grs+2,f
  5831     04D1                     u4092:
  5832     04D1  0831               	movf	??___flmul+3,w
  5833     04D2  1103               	clrz
  5834     04D3  1803               	skipnc
  5835     04D4  3E01               	addlw	1
  5836     04D5  1903               	skipnz
  5837     04D6  2CD8               	goto	u4093
  5838     04D7  07B8               	addwf	___flmul@grs+3,f
  5839     04D8                     u4093:
  5840     04D8                     l3236:
  5841     04D8  083F               	movf	___flmul@temp+1,w
  5842     04D9  00AE               	movwf	??___flmul
  5843     04DA  01AF               	clrf	??___flmul+1
  5844     04DB  01B0               	clrf	??___flmul+2
  5845     04DC  01B1               	clrf	??___flmul+3
  5846     04DD  082E               	movf	??___flmul,w
  5847     04DE  07BA               	addwf	___flmul@prod,f
  5848     04DF  082F               	movf	??___flmul+1,w
  5849     04E0  1103               	clrz
  5850     04E1  1803               	skipnc
  5851     04E2  3E01               	addlw	1
  5852     04E3  1903               	skipnz
  5853     04E4  2CE6               	goto	u4101
  5854     04E5  07BB               	addwf	___flmul@prod+1,f
  5855     04E6                     u4101:
  5856     04E6  0830               	movf	??___flmul+2,w
  5857     04E7  1103               	clrz
  5858     04E8  1803               	skipnc
  5859     04E9  3E01               	addlw	1
  5860     04EA  1903               	skipnz
  5861     04EB  2CED               	goto	u4102
  5862     04EC  07BC               	addwf	___flmul@prod+2,f
  5863     04ED                     u4102:
  5864     04ED  0831               	movf	??___flmul+3,w
  5865     04EE  1103               	clrz
  5866     04EF  1803               	skipnc
  5867     04F0  3E01               	addlw	1
  5868     04F1  1903               	skipnz
  5869     04F2  2CF4               	goto	u4103
  5870     04F3  07BD               	addwf	___flmul@prod+3,f
  5871     04F4                     u4103:
  5872     04F4                     l3238:
  5873     04F4  3008               	movlw	8
  5874     04F5  00AE               	movwf	??___flmul
  5875     04F6                     u4115:
  5876     04F6  1003               	clrc
  5877     04F7  0DB5               	rlf	___flmul@grs,f
  5878     04F8  0DB6               	rlf	___flmul@grs+1,f
  5879     04F9  0DB7               	rlf	___flmul@grs+2,f
  5880     04FA  0DB8               	rlf	___flmul@grs+3,f
  5881     04FB  0BAE               	decfsz	??___flmul,f
  5882     04FC  2CF6               	goto	u4115
  5883     04FD                     l3240:
  5884     04FD  0827               	movf	___flmul@b+1,w
  5885     04FE  00F2               	movwf	__Umul8_16@multiplicand
  5886     04FF  082A               	movf	___flmul@a,w
  5887     0500  160A  118A  25EC  120A  118A  	fcall	__Umul8_16
  5888     0505  0873               	movf	?__Umul8_16+1,w
  5889     0506  1283               	bcf	3,5	;RP0=0, select bank0
  5890     0507  1303               	bcf	3,6	;RP1=0, select bank0
  5891     0508  00BF               	movwf	___flmul@temp+1
  5892     0509  0872               	movf	?__Umul8_16,w
  5893     050A  00BE               	movwf	___flmul@temp
  5894     050B                     l3242:
  5895     050B  083E               	movf	___flmul@temp,w
  5896     050C  00AE               	movwf	??___flmul
  5897     050D  083F               	movf	___flmul@temp+1,w
  5898     050E  00AF               	movwf	??___flmul+1
  5899     050F  01B0               	clrf	??___flmul+2
  5900     0510  01B1               	clrf	??___flmul+3
  5901     0511  082E               	movf	??___flmul,w
  5902     0512  07B5               	addwf	___flmul@grs,f
  5903     0513  082F               	movf	??___flmul+1,w
  5904     0514  1103               	clrz
  5905     0515  1803               	skipnc
  5906     0516  3E01               	addlw	1
  5907     0517  1903               	skipnz
  5908     0518  2D1A               	goto	u4121
  5909     0519  07B6               	addwf	___flmul@grs+1,f
  5910     051A                     u4121:
  5911     051A  0830               	movf	??___flmul+2,w
  5912     051B  1103               	clrz
  5913     051C  1803               	skipnc
  5914     051D  3E01               	addlw	1
  5915     051E  1903               	skipnz
  5916     051F  2D21               	goto	u4122
  5917     0520  07B7               	addwf	___flmul@grs+2,f
  5918     0521                     u4122:
  5919     0521  0831               	movf	??___flmul+3,w
  5920     0522  1103               	clrz
  5921     0523  1803               	skipnc
  5922     0524  3E01               	addlw	1
  5923     0525  1903               	skipnz
  5924     0526  2D28               	goto	u4123
  5925     0527  07B8               	addwf	___flmul@grs+3,f
  5926     0528                     u4123:
  5927     0528                     l3244:
  5928     0528  0826               	movf	___flmul@b,w
  5929     0529  00F2               	movwf	__Umul8_16@multiplicand
  5930     052A  082B               	movf	___flmul@a+1,w
  5931     052B  160A  118A  25EC  120A  118A  	fcall	__Umul8_16
  5932     0530  0873               	movf	?__Umul8_16+1,w
  5933     0531  1283               	bcf	3,5	;RP0=0, select bank0
  5934     0532  1303               	bcf	3,6	;RP1=0, select bank0
  5935     0533  00BF               	movwf	___flmul@temp+1
  5936     0534  0872               	movf	?__Umul8_16,w
  5937     0535  00BE               	movwf	___flmul@temp
  5938     0536                     l3246:
  5939     0536  083E               	movf	___flmul@temp,w
  5940     0537  00AE               	movwf	??___flmul
  5941     0538  083F               	movf	___flmul@temp+1,w
  5942     0539  00AF               	movwf	??___flmul+1
  5943     053A  01B0               	clrf	??___flmul+2
  5944     053B  01B1               	clrf	??___flmul+3
  5945     053C  082E               	movf	??___flmul,w
  5946     053D  07B5               	addwf	___flmul@grs,f
  5947     053E  082F               	movf	??___flmul+1,w
  5948     053F  1103               	clrz
  5949     0540  1803               	skipnc
  5950     0541  3E01               	addlw	1
  5951     0542  1903               	skipnz
  5952     0543  2D45               	goto	u4131
  5953     0544  07B6               	addwf	___flmul@grs+1,f
  5954     0545                     u4131:
  5955     0545  0830               	movf	??___flmul+2,w
  5956     0546  1103               	clrz
  5957     0547  1803               	skipnc
  5958     0548  3E01               	addlw	1
  5959     0549  1903               	skipnz
  5960     054A  2D4C               	goto	u4132
  5961     054B  07B7               	addwf	___flmul@grs+2,f
  5962     054C                     u4132:
  5963     054C  0831               	movf	??___flmul+3,w
  5964     054D  1103               	clrz
  5965     054E  1803               	skipnc
  5966     054F  3E01               	addlw	1
  5967     0550  1903               	skipnz
  5968     0551  2D53               	goto	u4133
  5969     0552  07B8               	addwf	___flmul@grs+3,f
  5970     0553                     u4133:
  5971     0553                     l3248:
  5972     0553  3008               	movlw	8
  5973     0554  00AE               	movwf	??___flmul
  5974     0555                     u4145:
  5975     0555  1003               	clrc
  5976     0556  0DB5               	rlf	___flmul@grs,f
  5977     0557  0DB6               	rlf	___flmul@grs+1,f
  5978     0558  0DB7               	rlf	___flmul@grs+2,f
  5979     0559  0DB8               	rlf	___flmul@grs+3,f
  5980     055A  0BAE               	decfsz	??___flmul,f
  5981     055B  2D55               	goto	u4145
  5982     055C  0826               	movf	___flmul@b,w
  5983     055D  00F2               	movwf	__Umul8_16@multiplicand
  5984     055E  082A               	movf	___flmul@a,w
  5985     055F  160A  118A  25EC  120A  118A  	fcall	__Umul8_16
  5986     0564  0873               	movf	?__Umul8_16+1,w
  5987     0565  1283               	bcf	3,5	;RP0=0, select bank0
  5988     0566  1303               	bcf	3,6	;RP1=0, select bank0
  5989     0567  00BF               	movwf	___flmul@temp+1
  5990     0568  0872               	movf	?__Umul8_16,w
  5991     0569  00BE               	movwf	___flmul@temp
  5992     056A                     l3250:
  5993     056A  083E               	movf	___flmul@temp,w
  5994     056B  00AE               	movwf	??___flmul
  5995     056C  083F               	movf	___flmul@temp+1,w
  5996     056D  00AF               	movwf	??___flmul+1
  5997     056E  01B0               	clrf	??___flmul+2
  5998     056F  01B1               	clrf	??___flmul+3
  5999     0570  082E               	movf	??___flmul,w
  6000     0571  07B5               	addwf	___flmul@grs,f
  6001     0572  082F               	movf	??___flmul+1,w
  6002     0573  1103               	clrz
  6003     0574  1803               	skipnc
  6004     0575  3E01               	addlw	1
  6005     0576  1903               	skipnz
  6006     0577  2D79               	goto	u4151
  6007     0578  07B6               	addwf	___flmul@grs+1,f
  6008     0579                     u4151:
  6009     0579  0830               	movf	??___flmul+2,w
  6010     057A  1103               	clrz
  6011     057B  1803               	skipnc
  6012     057C  3E01               	addlw	1
  6013     057D  1903               	skipnz
  6014     057E  2D80               	goto	u4152
  6015     057F  07B7               	addwf	___flmul@grs+2,f
  6016     0580                     u4152:
  6017     0580  0831               	movf	??___flmul+3,w
  6018     0581  1103               	clrz
  6019     0582  1803               	skipnc
  6020     0583  3E01               	addlw	1
  6021     0584  1903               	skipnz
  6022     0585  2D87               	goto	u4153
  6023     0586  07B8               	addwf	___flmul@grs+3,f
  6024     0587                     u4153:
  6025     0587                     l3252:
  6026     0587  0827               	movf	___flmul@b+1,w
  6027     0588  00F2               	movwf	__Umul8_16@multiplicand
  6028     0589  082C               	movf	___flmul@a+2,w
  6029     058A  160A  118A  25EC  120A  118A  	fcall	__Umul8_16
  6030     058F  0873               	movf	?__Umul8_16+1,w
  6031     0590  1283               	bcf	3,5	;RP0=0, select bank0
  6032     0591  1303               	bcf	3,6	;RP1=0, select bank0
  6033     0592  00BF               	movwf	___flmul@temp+1
  6034     0593  0872               	movf	?__Umul8_16,w
  6035     0594  00BE               	movwf	___flmul@temp
  6036     0595  083E               	movf	___flmul@temp,w
  6037     0596  00AE               	movwf	??___flmul
  6038     0597  083F               	movf	___flmul@temp+1,w
  6039     0598  00AF               	movwf	??___flmul+1
  6040     0599  01B0               	clrf	??___flmul+2
  6041     059A  01B1               	clrf	??___flmul+3
  6042     059B  082E               	movf	??___flmul,w
  6043     059C  07BA               	addwf	___flmul@prod,f
  6044     059D  082F               	movf	??___flmul+1,w
  6045     059E  1103               	clrz
  6046     059F  1803               	skipnc
  6047     05A0  3E01               	addlw	1
  6048     05A1  1903               	skipnz
  6049     05A2  2DA4               	goto	u4161
  6050     05A3  07BB               	addwf	___flmul@prod+1,f
  6051     05A4                     u4161:
  6052     05A4  0830               	movf	??___flmul+2,w
  6053     05A5  1103               	clrz
  6054     05A6  1803               	skipnc
  6055     05A7  3E01               	addlw	1
  6056     05A8  1903               	skipnz
  6057     05A9  2DAB               	goto	u4162
  6058     05AA  07BC               	addwf	___flmul@prod+2,f
  6059     05AB                     u4162:
  6060     05AB  0831               	movf	??___flmul+3,w
  6061     05AC  1103               	clrz
  6062     05AD  1803               	skipnc
  6063     05AE  3E01               	addlw	1
  6064     05AF  1903               	skipnz
  6065     05B0  2DB2               	goto	u4163
  6066     05B1  07BD               	addwf	___flmul@prod+3,f
  6067     05B2                     u4163:
  6068     05B2                     l3254:
  6069     05B2  0828               	movf	___flmul@b+2,w
  6070     05B3  00F2               	movwf	__Umul8_16@multiplicand
  6071     05B4  082B               	movf	___flmul@a+1,w
  6072     05B5  160A  118A  25EC  120A  118A  	fcall	__Umul8_16
  6073     05BA  0873               	movf	?__Umul8_16+1,w
  6074     05BB  1283               	bcf	3,5	;RP0=0, select bank0
  6075     05BC  1303               	bcf	3,6	;RP1=0, select bank0
  6076     05BD  00BF               	movwf	___flmul@temp+1
  6077     05BE  0872               	movf	?__Umul8_16,w
  6078     05BF  00BE               	movwf	___flmul@temp
  6079     05C0                     l3256:
  6080     05C0  083E               	movf	___flmul@temp,w
  6081     05C1  00AE               	movwf	??___flmul
  6082     05C2  083F               	movf	___flmul@temp+1,w
  6083     05C3  00AF               	movwf	??___flmul+1
  6084     05C4  01B0               	clrf	??___flmul+2
  6085     05C5  01B1               	clrf	??___flmul+3
  6086     05C6  082E               	movf	??___flmul,w
  6087     05C7  07BA               	addwf	___flmul@prod,f
  6088     05C8  082F               	movf	??___flmul+1,w
  6089     05C9  1103               	clrz
  6090     05CA  1803               	skipnc
  6091     05CB  3E01               	addlw	1
  6092     05CC  1903               	skipnz
  6093     05CD  2DCF               	goto	u4171
  6094     05CE  07BB               	addwf	___flmul@prod+1,f
  6095     05CF                     u4171:
  6096     05CF  0830               	movf	??___flmul+2,w
  6097     05D0  1103               	clrz
  6098     05D1  1803               	skipnc
  6099     05D2  3E01               	addlw	1
  6100     05D3  1903               	skipnz
  6101     05D4  2DD6               	goto	u4172
  6102     05D5  07BC               	addwf	___flmul@prod+2,f
  6103     05D6                     u4172:
  6104     05D6  0831               	movf	??___flmul+3,w
  6105     05D7  1103               	clrz
  6106     05D8  1803               	skipnc
  6107     05D9  3E01               	addlw	1
  6108     05DA  1903               	skipnz
  6109     05DB  2DDD               	goto	u4173
  6110     05DC  07BD               	addwf	___flmul@prod+3,f
  6111     05DD                     u4173:
  6112     05DD  0828               	movf	___flmul@b+2,w
  6113     05DE  00F2               	movwf	__Umul8_16@multiplicand
  6114     05DF  082C               	movf	___flmul@a+2,w
  6115     05E0  160A  118A  25EC  120A  118A  	fcall	__Umul8_16
  6116     05E5  0873               	movf	?__Umul8_16+1,w
  6117     05E6  1283               	bcf	3,5	;RP0=0, select bank0
  6118     05E7  1303               	bcf	3,6	;RP1=0, select bank0
  6119     05E8  00BF               	movwf	___flmul@temp+1
  6120     05E9  0872               	movf	?__Umul8_16,w
  6121     05EA  00BE               	movwf	___flmul@temp
  6122     05EB                     l3258:
  6123     05EB  083E               	movf	___flmul@temp,w
  6124     05EC  00AE               	movwf	??___flmul
  6125     05ED  083F               	movf	___flmul@temp+1,w
  6126     05EE  00AF               	movwf	??___flmul+1
  6127     05EF  01B0               	clrf	??___flmul+2
  6128     05F0  01B1               	clrf	??___flmul+3
  6129     05F1  3008               	movlw	8
  6130     05F2                     u4185:
  6131     05F2  1003               	clrc
  6132     05F3  0DAE               	rlf	??___flmul,f
  6133     05F4  0DAF               	rlf	??___flmul+1,f
  6134     05F5  0DB0               	rlf	??___flmul+2,f
  6135     05F6  0DB1               	rlf	??___flmul+3,f
  6136     05F7                     u4180:
  6137     05F7  3EFF               	addlw	-1
  6138     05F8  1D03               	skipz
  6139     05F9  2DF2               	goto	u4185
  6140     05FA  082E               	movf	??___flmul,w
  6141     05FB  07BA               	addwf	___flmul@prod,f
  6142     05FC  082F               	movf	??___flmul+1,w
  6143     05FD  1103               	clrz
  6144     05FE  1803               	skipnc
  6145     05FF  3E01               	addlw	1
  6146     0600  1903               	skipnz
  6147     0601  2E03               	goto	u4191
  6148     0602  07BB               	addwf	___flmul@prod+1,f
  6149     0603                     u4191:
  6150     0603  0830               	movf	??___flmul+2,w
  6151     0604  1103               	clrz
  6152     0605  1803               	skipnc
  6153     0606  3E01               	addlw	1
  6154     0607  1903               	skipnz
  6155     0608  2E0A               	goto	u4192
  6156     0609  07BC               	addwf	___flmul@prod+2,f
  6157     060A                     u4192:
  6158     060A  0831               	movf	??___flmul+3,w
  6159     060B  1103               	clrz
  6160     060C  1803               	skipnc
  6161     060D  3E01               	addlw	1
  6162     060E  1903               	skipnz
  6163     060F  2E11               	goto	u4193
  6164     0610  07BD               	addwf	___flmul@prod+3,f
  6165     0611                     u4193:
  6166     0611                     l3260:
  6167     0611  0835               	movf	___flmul@grs,w
  6168     0612  00AE               	movwf	??___flmul
  6169     0613  0836               	movf	___flmul@grs+1,w
  6170     0614  00AF               	movwf	??___flmul+1
  6171     0615  0837               	movf	___flmul@grs+2,w
  6172     0616  00B0               	movwf	??___flmul+2
  6173     0617  0838               	movf	___flmul@grs+3,w
  6174     0618  00B1               	movwf	??___flmul+3
  6175     0619  3018               	movlw	24
  6176     061A                     u4205:
  6177     061A  1003               	clrc
  6178     061B  0CB1               	rrf	??___flmul+3,f
  6179     061C  0CB0               	rrf	??___flmul+2,f
  6180     061D  0CAF               	rrf	??___flmul+1,f
  6181     061E  0CAE               	rrf	??___flmul,f
  6182     061F                     u4200:
  6183     061F  3EFF               	addlw	-1
  6184     0620  1D03               	skipz
  6185     0621  2E1A               	goto	u4205
  6186     0622  082E               	movf	??___flmul,w
  6187     0623  07BA               	addwf	___flmul@prod,f
  6188     0624  082F               	movf	??___flmul+1,w
  6189     0625  1103               	clrz
  6190     0626  1803               	skipnc
  6191     0627  3E01               	addlw	1
  6192     0628  1903               	skipnz
  6193     0629  2E2B               	goto	u4211
  6194     062A  07BB               	addwf	___flmul@prod+1,f
  6195     062B                     u4211:
  6196     062B  0830               	movf	??___flmul+2,w
  6197     062C  1103               	clrz
  6198     062D  1803               	skipnc
  6199     062E  3E01               	addlw	1
  6200     062F  1903               	skipnz
  6201     0630  2E32               	goto	u4212
  6202     0631  07BC               	addwf	___flmul@prod+2,f
  6203     0632                     u4212:
  6204     0632  0831               	movf	??___flmul+3,w
  6205     0633  1103               	clrz
  6206     0634  1803               	skipnc
  6207     0635  3E01               	addlw	1
  6208     0636  1903               	skipnz
  6209     0637  2E39               	goto	u4213
  6210     0638  07BD               	addwf	___flmul@prod+3,f
  6211     0639                     u4213:
  6212     0639                     l3262:
  6213     0639  3008               	movlw	8
  6214     063A  00AE               	movwf	??___flmul
  6215     063B                     u4225:
  6216     063B  1003               	clrc
  6217     063C  0DB5               	rlf	___flmul@grs,f
  6218     063D  0DB6               	rlf	___flmul@grs+1,f
  6219     063E  0DB7               	rlf	___flmul@grs+2,f
  6220     063F  0DB8               	rlf	___flmul@grs+3,f
  6221     0640  0BAE               	decfsz	??___flmul,f
  6222     0641  2E3B               	goto	u4225
  6223     0642                     l3264:
  6224     0642  0839               	movf	___flmul@bexp,w
  6225     0643  0734               	addwf	___flmul@aexp,w
  6226     0644  00AE               	movwf	??___flmul
  6227     0645  01AF               	clrf	??___flmul+1
  6228     0646  0DAF               	rlf	??___flmul+1,f
  6229     0647  082E               	movf	??___flmul,w
  6230     0648  3E82               	addlw	130
  6231     0649  00BE               	movwf	___flmul@temp
  6232     064A  082F               	movf	??___flmul+1,w
  6233     064B  1803               	skipnc
  6234     064C  3E01               	addlw	1
  6235     064D  3EFF               	addlw	255
  6236     064E  00BF               	movwf	___flmul@temp+1
  6237     064F  2E6D               	goto	l3276
  6238     0650                     l3266:
  6239     0650  3001               	movlw	1
  6240     0651  00AE               	movwf	??___flmul
  6241     0652                     u4235:
  6242     0652  1003               	clrc
  6243     0653  0DBA               	rlf	___flmul@prod,f
  6244     0654  0DBB               	rlf	___flmul@prod+1,f
  6245     0655  0DBC               	rlf	___flmul@prod+2,f
  6246     0656  0DBD               	rlf	___flmul@prod+3,f
  6247     0657  0BAE               	decfsz	??___flmul,f
  6248     0658  2E52               	goto	u4235
  6249     0659                     l3268:
  6250     0659  1FB8               	btfss	___flmul@grs+3,7
  6251     065A  2E5C               	goto	u4241
  6252     065B  2E5D               	goto	u4240
  6253     065C                     u4241:
  6254     065C  2E5E               	goto	l3272
  6255     065D                     u4240:
  6256     065D                     l3270:
  6257     065D  143A               	bsf	___flmul@prod,0
  6258     065E                     l3272:
  6259     065E  3001               	movlw	1
  6260     065F  00AE               	movwf	??___flmul
  6261     0660                     u4255:
  6262     0660  1003               	clrc
  6263     0661  0DB5               	rlf	___flmul@grs,f
  6264     0662  0DB6               	rlf	___flmul@grs+1,f
  6265     0663  0DB7               	rlf	___flmul@grs+2,f
  6266     0664  0DB8               	rlf	___flmul@grs+3,f
  6267     0665  0BAE               	decfsz	??___flmul,f
  6268     0666  2E60               	goto	u4255
  6269     0667                     l3274:
  6270     0667  30FF               	movlw	255
  6271     0668  07BE               	addwf	___flmul@temp,f
  6272     0669  1803               	skipnc
  6273     066A  0ABF               	incf	___flmul@temp+1,f
  6274     066B  30FF               	movlw	255
  6275     066C  07BF               	addwf	___flmul@temp+1,f
  6276     066D                     l3276:
  6277     066D  1FBC               	btfss	___flmul@prod+2,7
  6278     066E  2E70               	goto	u4261
  6279     066F  2E71               	goto	u4260
  6280     0670                     u4261:
  6281     0670  2E50               	goto	l3266
  6282     0671                     u4260:
  6283     0671                     l3278:
  6284     0671  01B4               	clrf	___flmul@aexp
  6285     0672                     l3280:
  6286     0672  1FB8               	btfss	___flmul@grs+3,7
  6287     0673  2E75               	goto	u4271
  6288     0674  2E76               	goto	u4270
  6289     0675                     u4271:
  6290     0675  2E92               	goto	l3288
  6291     0676                     u4270:
  6292     0676                     l3282:
  6293     0676  30FF               	movlw	255
  6294     0677  0535               	andwf	___flmul@grs,w
  6295     0678  00AE               	movwf	??___flmul
  6296     0679  30FF               	movlw	255
  6297     067A  0536               	andwf	___flmul@grs+1,w
  6298     067B  00AF               	movwf	??___flmul+1
  6299     067C  30FF               	movlw	255
  6300     067D  0537               	andwf	___flmul@grs+2,w
  6301     067E  00B0               	movwf	??___flmul+2
  6302     067F  307F               	movlw	127
  6303     0680  0538               	andwf	___flmul@grs+3,w
  6304     0681  00B1               	movwf	??___flmul+3
  6305     0682  0831               	movf	??___flmul+3,w
  6306     0683  0430               	iorwf	??___flmul+2,w
  6307     0684  042F               	iorwf	??___flmul+1,w
  6308     0685  042E               	iorwf	??___flmul,w
  6309     0686  1903               	skipnz
  6310     0687  2E89               	goto	u4281
  6311     0688  2E8A               	goto	u4280
  6312     0689                     u4281:
  6313     0689  2E8D               	goto	l793
  6314     068A                     u4280:
  6315     068A                     l3284:
  6316     068A  01B4               	clrf	___flmul@aexp
  6317     068B  0AB4               	incf	___flmul@aexp,f
  6318     068C  2E92               	goto	l3288
  6319     068D                     l793:
  6320     068D  1C3A               	btfss	___flmul@prod,0
  6321     068E  2E90               	goto	u4291
  6322     068F  2E91               	goto	u4290
  6323     0690                     u4291:
  6324     0690  2E92               	goto	l3288
  6325     0691                     u4290:
  6326     0691  2E8A               	goto	l3284
  6327     0692                     l3288:
  6328     0692  0834               	movf	___flmul@aexp,w
  6329     0693  1903               	btfsc	3,2
  6330     0694  2E96               	goto	u4301
  6331     0695  2E97               	goto	u4300
  6332     0696                     u4301:
  6333     0696  2EC8               	goto	l3298
  6334     0697                     u4300:
  6335     0697                     l3290:
  6336     0697  3001               	movlw	1
  6337     0698  07BA               	addwf	___flmul@prod,f
  6338     0699  3000               	movlw	0
  6339     069A  1803               	skipnc
  6340     069B  3001               	movlw	1
  6341     069C  07BB               	addwf	___flmul@prod+1,f
  6342     069D  3000               	movlw	0
  6343     069E  1803               	skipnc
  6344     069F  3001               	movlw	1
  6345     06A0  07BC               	addwf	___flmul@prod+2,f
  6346     06A1  3000               	movlw	0
  6347     06A2  1803               	skipnc
  6348     06A3  3001               	movlw	1
  6349     06A4  07BD               	addwf	___flmul@prod+3,f
  6350     06A5                     l3292:
  6351     06A5  1C3D               	btfss	___flmul@prod+3,0
  6352     06A6  2EA8               	goto	u4311
  6353     06A7  2EA9               	goto	u4310
  6354     06A8                     u4311:
  6355     06A8  2EC8               	goto	l3298
  6356     06A9                     u4310:
  6357     06A9                     l3294:
  6358     06A9  083A               	movf	___flmul@prod,w
  6359     06AA  00AE               	movwf	??___flmul
  6360     06AB  083B               	movf	___flmul@prod+1,w
  6361     06AC  00AF               	movwf	??___flmul+1
  6362     06AD  083C               	movf	___flmul@prod+2,w
  6363     06AE  00B0               	movwf	??___flmul+2
  6364     06AF  083D               	movf	___flmul@prod+3,w
  6365     06B0  00B1               	movwf	??___flmul+3
  6366     06B1  3001               	movlw	1
  6367     06B2  00B2               	movwf	??___flmul+4
  6368     06B3                     u4325:
  6369     06B3  0D31               	rlf	??___flmul+3,w
  6370     06B4  0CB1               	rrf	??___flmul+3,f
  6371     06B5  0CB0               	rrf	??___flmul+2,f
  6372     06B6  0CAF               	rrf	??___flmul+1,f
  6373     06B7  0CAE               	rrf	??___flmul,f
  6374     06B8                     u4320:
  6375     06B8  0BB2               	decfsz	??___flmul+4,f
  6376     06B9  2EB3               	goto	u4325
  6377     06BA  0831               	movf	??___flmul+3,w
  6378     06BB  00BD               	movwf	___flmul@prod+3
  6379     06BC  0830               	movf	??___flmul+2,w
  6380     06BD  00BC               	movwf	___flmul@prod+2
  6381     06BE  082F               	movf	??___flmul+1,w
  6382     06BF  00BB               	movwf	___flmul@prod+1
  6383     06C0  082E               	movf	??___flmul,w
  6384     06C1  00BA               	movwf	___flmul@prod
  6385     06C2                     l3296:
  6386     06C2  3001               	movlw	1
  6387     06C3  07BE               	addwf	___flmul@temp,f
  6388     06C4  1803               	skipnc
  6389     06C5  0ABF               	incf	___flmul@temp+1,f
  6390     06C6  3000               	movlw	0
  6391     06C7  07BF               	addwf	___flmul@temp+1,f
  6392     06C8                     l3298:
  6393     06C8  083F               	movf	___flmul@temp+1,w
  6394     06C9  3A80               	xorlw	128
  6395     06CA  00FF               	movwf	btemp+1
  6396     06CB  3080               	movlw	128
  6397     06CC  027F               	subwf	btemp+1,w
  6398     06CD  1D03               	skipz
  6399     06CE  2ED1               	goto	u4335
  6400     06CF  30FF               	movlw	255
  6401     06D0  023E               	subwf	___flmul@temp,w
  6402     06D1                     u4335:
  6403     06D1  1C03               	skipc
  6404     06D2  2ED4               	goto	u4331
  6405     06D3  2ED5               	goto	u4330
  6406     06D4                     u4331:
  6407     06D4  2EE0               	goto	l3302
  6408     06D5                     u4330:
  6409     06D5                     l3300:
  6410     06D5  307F               	movlw	127
  6411     06D6  1283               	bcf	3,5	;RP0=0, select bank0
  6412     06D7  1303               	bcf	3,6	;RP1=0, select bank0
  6413     06D8  00BD               	movwf	___flmul@prod+3
  6414     06D9  3080               	movlw	128
  6415     06DA  00BC               	movwf	___flmul@prod+2
  6416     06DB  3000               	movlw	0
  6417     06DC  00BB               	movwf	___flmul@prod+1
  6418     06DD  3000               	movlw	0
  6419     06DE  00BA               	movwf	___flmul@prod
  6420     06DF  2F11               	goto	l3316
  6421     06E0                     l3302:
  6422     06E0  1283               	bcf	3,5	;RP0=0, select bank0
  6423     06E1  1303               	bcf	3,6	;RP1=0, select bank0
  6424     06E2  083F               	movf	___flmul@temp+1,w
  6425     06E3  3A80               	xorlw	128
  6426     06E4  00FF               	movwf	btemp+1
  6427     06E5  3080               	movlw	128
  6428     06E6  027F               	subwf	btemp+1,w
  6429     06E7  1D03               	skipz
  6430     06E8  2EEB               	goto	u4345
  6431     06E9  3001               	movlw	1
  6432     06EA  023E               	subwf	___flmul@temp,w
  6433     06EB                     u4345:
  6434     06EB  1803               	skipnc
  6435     06EC  2EEE               	goto	u4341
  6436     06ED  2EEF               	goto	u4340
  6437     06EE                     u4341:
  6438     06EE  2EFB               	goto	l3308
  6439     06EF                     u4340:
  6440     06EF                     l3304:
  6441     06EF  3000               	movlw	0
  6442     06F0  1283               	bcf	3,5	;RP0=0, select bank0
  6443     06F1  1303               	bcf	3,6	;RP1=0, select bank0
  6444     06F2  00BD               	movwf	___flmul@prod+3
  6445     06F3  3000               	movlw	0
  6446     06F4  00BC               	movwf	___flmul@prod+2
  6447     06F5  3000               	movlw	0
  6448     06F6  00BB               	movwf	___flmul@prod+1
  6449     06F7  3000               	movlw	0
  6450     06F8  00BA               	movwf	___flmul@prod
  6451     06F9                     l3306:
  6452     06F9  01B3               	clrf	___flmul@sign
  6453     06FA  2F11               	goto	l3316
  6454     06FB                     l3308:
  6455     06FB  1283               	bcf	3,5	;RP0=0, select bank0
  6456     06FC  1303               	bcf	3,6	;RP1=0, select bank0
  6457     06FD  083E               	movf	___flmul@temp,w
  6458     06FE  00B9               	movwf	___flmul@bexp
  6459     06FF  30FF               	movlw	255
  6460     0700  05BA               	andwf	___flmul@prod,f
  6461     0701  30FF               	movlw	255
  6462     0702  05BB               	andwf	___flmul@prod+1,f
  6463     0703  307F               	movlw	127
  6464     0704  05BC               	andwf	___flmul@prod+2,f
  6465     0705  3000               	movlw	0
  6466     0706  05BD               	andwf	___flmul@prod+3,f
  6467     0707                     l3310:
  6468     0707  1C39               	btfss	___flmul@bexp,0
  6469     0708  2F0A               	goto	u4351
  6470     0709  2F0B               	goto	u4350
  6471     070A                     u4351:
  6472     070A  2F0C               	goto	l3314
  6473     070B                     u4350:
  6474     070B                     l3312:
  6475     070B  17BC               	bsf	___flmul@prod+2,7
  6476     070C                     l3314:
  6477     070C  0839               	movf	___flmul@bexp,w
  6478     070D  00AE               	movwf	??___flmul
  6479     070E  1003               	clrc
  6480     070F  0C2E               	rrf	??___flmul,w
  6481     0710  00BD               	movwf	___flmul@prod+3
  6482     0711                     l3316:
  6483     0711  0833               	movf	___flmul@sign,w
  6484     0712  00FF               	movwf	btemp+1
  6485     0713  087F               	movf	btemp+1,w
  6486     0714  04BD               	iorwf	___flmul@prod+3,f
  6487     0715                     l3318:
  6488     0715  083D               	movf	___flmul@prod+3,w
  6489     0716  00A9               	movwf	?___flmul+3
  6490     0717  083C               	movf	___flmul@prod+2,w
  6491     0718  00A8               	movwf	?___flmul+2
  6492     0719  083B               	movf	___flmul@prod+1,w
  6493     071A  00A7               	movwf	?___flmul+1
  6494     071B  083A               	movf	___flmul@prod,w
  6495     071C  00A6               	movwf	?___flmul
  6496     071D                     l787:
  6497     071D  0008               	return
  6498     071E                     __end_of___flmul:
  6499                           
  6500                           	psect	text12
  6501     15EC                     __ptext12:	
  6502 ;; *************** function __Umul8_16 *****************
  6503 ;; Defined at:
  6504 ;;		line 4 in file "C:\Program Files\Microchip\xc8\v2.46\pic\sources\c99\common\Umul8_16.c"
  6505 ;; Parameters:    Size  Location     Type
  6506 ;;  multiplier      1    wreg     unsigned char 
  6507 ;;  multiplicand    1    2[COMMON] unsigned char 
  6508 ;; Auto vars:     Size  Location     Type
  6509 ;;  multiplier      1    4[BANK0 ] unsigned char 
  6510 ;;  word_mpld       2    2[BANK0 ] unsigned short 
  6511 ;;  product         2    0[BANK0 ] unsigned short 
  6512 ;; Return value:  Size  Location     Type
  6513 ;;                  2    2[COMMON] unsigned int 
  6514 ;; Registers used:
  6515 ;;		wreg, status,2, status,0
  6516 ;; Tracked objects:
  6517 ;;		On entry : 0/0
  6518 ;;		On exit  : 0/0
  6519 ;;		Unchanged: 0/0
  6520 ;; Data sizes:     COMMON   BANK0   BANK1   BANK3   BANK2
  6521 ;;      Params:         2       0       0       0       0
  6522 ;;      Locals:         0       5       0       0       0
  6523 ;;      Temps:          2       0       0       0       0
  6524 ;;      Totals:         4       5       0       0       0
  6525 ;;Total ram usage:        9 bytes
  6526 ;; Hardware stack levels used: 1
  6527 ;; Hardware stack levels required when called: 1
  6528 ;; This function calls:
  6529 ;;		Nothing
  6530 ;; This function is called by:
  6531 ;;		___flmul
  6532 ;; This function uses a non-reentrant model
  6533 ;;
  6534                           
  6535     15EC                     __Umul8_16:	
  6536                           ;psect for function __Umul8_16
  6537                           
  6538                           
  6539                           ;incstack = 0
  6540                           ; Regs used in __Umul8_16: [wreg+status,2+status,0]
  6541                           ;__Umul8_16@multiplier stored from wreg
  6542     15EC  1283               	bcf	3,5	;RP0=0, select bank0
  6543     15ED  1303               	bcf	3,6	;RP1=0, select bank0
  6544     15EE  00A4               	movwf	__Umul8_16@multiplier
  6545     15EF                     l3132:
  6546     15EF  01A0               	clrf	__Umul8_16@product
  6547     15F0  01A1               	clrf	__Umul8_16@product+1
  6548     15F1                     l3134:
  6549     15F1  0872               	movf	__Umul8_16@multiplicand,w
  6550     15F2  00F4               	movwf	??__Umul8_16
  6551     15F3  01F5               	clrf	??__Umul8_16+1
  6552     15F4  0874               	movf	??__Umul8_16,w
  6553     15F5  00A2               	movwf	__Umul8_16@word_mpld
  6554     15F6  0875               	movf	??__Umul8_16+1,w
  6555     15F7  00A3               	movwf	__Umul8_16@word_mpld+1
  6556     15F8                     l3136:
  6557     15F8  1C24               	btfss	__Umul8_16@multiplier,0
  6558     15F9  2DFB               	goto	u3941
  6559     15FA  2DFC               	goto	u3940
  6560     15FB                     u3941:
  6561     15FB  2E02               	goto	l806
  6562     15FC                     u3940:
  6563     15FC                     l3138:
  6564     15FC  0822               	movf	__Umul8_16@word_mpld,w
  6565     15FD  07A0               	addwf	__Umul8_16@product,f
  6566     15FE  1803               	skipnc
  6567     15FF  0AA1               	incf	__Umul8_16@product+1,f
  6568     1600  0823               	movf	__Umul8_16@word_mpld+1,w
  6569     1601  07A1               	addwf	__Umul8_16@product+1,f
  6570     1602                     l806:
  6571     1602  3001               	movlw	1
  6572     1603                     u3955:
  6573     1603  1003               	clrc
  6574     1604  0DA2               	rlf	__Umul8_16@word_mpld,f
  6575     1605  0DA3               	rlf	__Umul8_16@word_mpld+1,f
  6576     1606  3EFF               	addlw	-1
  6577     1607  1D03               	skipz
  6578     1608  2E03               	goto	u3955
  6579     1609  1003               	clrc
  6580     160A  0CA4               	rrf	__Umul8_16@multiplier,f
  6581     160B                     l3140:
  6582     160B  0824               	movf	__Umul8_16@multiplier,w
  6583     160C  1D03               	btfss	3,2
  6584     160D  2E0F               	goto	u3961
  6585     160E  2E10               	goto	u3960
  6586     160F                     u3961:
  6587     160F  2DF8               	goto	l3136
  6588     1610                     u3960:
  6589     1610                     l3142:
  6590     1610  0821               	movf	__Umul8_16@product+1,w
  6591     1611  00F3               	movwf	?__Umul8_16+1
  6592     1612  0820               	movf	__Umul8_16@product,w
  6593     1613  00F2               	movwf	?__Umul8_16
  6594     1614                     l808:
  6595     1614  0008               	return
  6596     1615                     __end_of__Umul8_16:
  6597                           
  6598                           	psect	text13
  6599     0923                     __ptext13:	
  6600 ;; *************** function ___flge *****************
  6601 ;; Defined at:
  6602 ;;		line 4 in file "C:\Program Files\Microchip\xc8\v2.46\pic\sources\c99\common\flge.c"
  6603 ;; Parameters:    Size  Location     Type
  6604 ;;  ff1             4   40[BANK0 ] unsigned int 
  6605 ;;  ff2             4   44[BANK0 ] unsigned int 
  6606 ;; Auto vars:     Size  Location     Type
  6607 ;;		None
  6608 ;; Return value:  Size  Location     Type
  6609 ;;		None               void
  6610 ;; Registers used:
  6611 ;;		wreg, status,2, status,0
  6612 ;; Tracked objects:
  6613 ;;		On entry : 0/0
  6614 ;;		On exit  : 0/0
  6615 ;;		Unchanged: 0/0
  6616 ;; Data sizes:     COMMON   BANK0   BANK1   BANK3   BANK2
  6617 ;;      Params:         0       8       0       0       0
  6618 ;;      Locals:         0       0       0       0       0
  6619 ;;      Temps:          0       4       0       0       0
  6620 ;;      Totals:         0      12       0       0       0
  6621 ;;Total ram usage:       12 bytes
  6622 ;; Hardware stack levels used: 1
  6623 ;; Hardware stack levels required when called: 1
  6624 ;; This function calls:
  6625 ;;		Nothing
  6626 ;; This function is called by:
  6627 ;;		_run_program
  6628 ;; This function uses a non-reentrant model
  6629 ;;
  6630                           
  6631     0923                     ___flge:	
  6632                           ;psect for function ___flge
  6633                           
  6634     0923                     l2362:	
  6635                           ;incstack = 0
  6636                           ; Regs used in ___flge: [wreg+status,2+status,0]
  6637                           
  6638     0923  3000               	movlw	0
  6639     0924  1283               	bcf	3,5	;RP0=0, select bank0
  6640     0925  1303               	bcf	3,6	;RP1=0, select bank0
  6641     0926  0548               	andwf	___flge@ff1,w
  6642     0927  00D0               	movwf	??___flge
  6643     0928  3000               	movlw	0
  6644     0929  0549               	andwf	___flge@ff1+1,w
  6645     092A  00D1               	movwf	??___flge+1
  6646     092B  3080               	movlw	128
  6647     092C  054A               	andwf	___flge@ff1+2,w
  6648     092D  00D2               	movwf	??___flge+2
  6649     092E  307F               	movlw	127
  6650     092F  054B               	andwf	___flge@ff1+3,w
  6651     0930  00D3               	movwf	??___flge+3
  6652     0931  0853               	movf	??___flge+3,w
  6653     0932  0452               	iorwf	??___flge+2,w
  6654     0933  0451               	iorwf	??___flge+1,w
  6655     0934  0450               	iorwf	??___flge,w
  6656     0935  1D03               	skipz
  6657     0936  2938               	goto	u2731
  6658     0937  2939               	goto	u2730
  6659     0938                     u2731:
  6660     0938  2941               	goto	l568
  6661     0939                     u2730:
  6662     0939                     l2364:
  6663     0939  3000               	movlw	0
  6664     093A  00CB               	movwf	___flge@ff1+3
  6665     093B  3000               	movlw	0
  6666     093C  00CA               	movwf	___flge@ff1+2
  6667     093D  3000               	movlw	0
  6668     093E  00C9               	movwf	___flge@ff1+1
  6669     093F  3000               	movlw	0
  6670     0940  00C8               	movwf	___flge@ff1
  6671     0941                     l568:
  6672     0941  3000               	movlw	0
  6673     0942  054C               	andwf	___flge@ff2,w
  6674     0943  00D0               	movwf	??___flge
  6675     0944  3000               	movlw	0
  6676     0945  054D               	andwf	___flge@ff2+1,w
  6677     0946  00D1               	movwf	??___flge+1
  6678     0947  3080               	movlw	128
  6679     0948  054E               	andwf	___flge@ff2+2,w
  6680     0949  00D2               	movwf	??___flge+2
  6681     094A  307F               	movlw	127
  6682     094B  054F               	andwf	___flge@ff2+3,w
  6683     094C  00D3               	movwf	??___flge+3
  6684     094D  0853               	movf	??___flge+3,w
  6685     094E  0452               	iorwf	??___flge+2,w
  6686     094F  0451               	iorwf	??___flge+1,w
  6687     0950  0450               	iorwf	??___flge,w
  6688     0951  1D03               	skipz
  6689     0952  2954               	goto	u2741
  6690     0953  2955               	goto	u2740
  6691     0954                     u2741:
  6692     0954  295D               	goto	l2368
  6693     0955                     u2740:
  6694     0955                     l2366:
  6695     0955  3000               	movlw	0
  6696     0956  00CF               	movwf	___flge@ff2+3
  6697     0957  3000               	movlw	0
  6698     0958  00CE               	movwf	___flge@ff2+2
  6699     0959  3000               	movlw	0
  6700     095A  00CD               	movwf	___flge@ff2+1
  6701     095B  3000               	movlw	0
  6702     095C  00CC               	movwf	___flge@ff2
  6703     095D                     l2368:
  6704     095D  1FCB               	btfss	___flge@ff1+3,7
  6705     095E  2960               	goto	u2751
  6706     095F  2961               	goto	u2750
  6707     0960                     u2751:
  6708     0960  2985               	goto	l2372
  6709     0961                     u2750:
  6710     0961                     l2370:
  6711     0961  3000               	movlw	0
  6712     0962  00D0               	movwf	??___flge
  6713     0963  3000               	movlw	0
  6714     0964  00D1               	movwf	??___flge+1
  6715     0965  3000               	movlw	0
  6716     0966  00D2               	movwf	??___flge+2
  6717     0967  3080               	movlw	128
  6718     0968  00D3               	movwf	??___flge+3
  6719     0969  0848               	movf	___flge@ff1,w
  6720     096A  02D0               	subwf	??___flge,f
  6721     096B  0849               	movf	___flge@ff1+1,w
  6722     096C  1C03               	skipc
  6723     096D  0F49               	incfsz	___flge@ff1+1,w
  6724     096E  2970               	goto	u2761
  6725     096F  2971               	goto	u2762
  6726     0970                     u2761:
  6727     0970  02D1               	subwf	??___flge+1,f
  6728     0971                     u2762:
  6729     0971  084A               	movf	___flge@ff1+2,w
  6730     0972  1C03               	skipc
  6731     0973  0F4A               	incfsz	___flge@ff1+2,w
  6732     0974  2976               	goto	u2763
  6733     0975  2977               	goto	u2764
  6734     0976                     u2763:
  6735     0976  02D2               	subwf	??___flge+2,f
  6736     0977                     u2764:
  6737     0977  084B               	movf	___flge@ff1+3,w
  6738     0978  1C03               	skipc
  6739     0979  0F4B               	incfsz	___flge@ff1+3,w
  6740     097A  297C               	goto	u2765
  6741     097B  297D               	goto	u2766
  6742     097C                     u2765:
  6743     097C  02D3               	subwf	??___flge+3,f
  6744     097D                     u2766:
  6745     097D  0853               	movf	??___flge+3,w
  6746     097E  00CB               	movwf	___flge@ff1+3
  6747     097F  0852               	movf	??___flge+2,w
  6748     0980  00CA               	movwf	___flge@ff1+2
  6749     0981  0851               	movf	??___flge+1,w
  6750     0982  00C9               	movwf	___flge@ff1+1
  6751     0983  0850               	movf	??___flge,w
  6752     0984  00C8               	movwf	___flge@ff1
  6753     0985                     l2372:
  6754     0985  1FCF               	btfss	___flge@ff2+3,7
  6755     0986  2988               	goto	u2771
  6756     0987  2989               	goto	u2770
  6757     0988                     u2771:
  6758     0988  29AD               	goto	l571
  6759     0989                     u2770:
  6760     0989                     l2374:
  6761     0989  3000               	movlw	0
  6762     098A  00D0               	movwf	??___flge
  6763     098B  3000               	movlw	0
  6764     098C  00D1               	movwf	??___flge+1
  6765     098D  3000               	movlw	0
  6766     098E  00D2               	movwf	??___flge+2
  6767     098F  3080               	movlw	128
  6768     0990  00D3               	movwf	??___flge+3
  6769     0991  084C               	movf	___flge@ff2,w
  6770     0992  02D0               	subwf	??___flge,f
  6771     0993  084D               	movf	___flge@ff2+1,w
  6772     0994  1C03               	skipc
  6773     0995  0F4D               	incfsz	___flge@ff2+1,w
  6774     0996  2998               	goto	u2781
  6775     0997  2999               	goto	u2782
  6776     0998                     u2781:
  6777     0998  02D1               	subwf	??___flge+1,f
  6778     0999                     u2782:
  6779     0999  084E               	movf	___flge@ff2+2,w
  6780     099A  1C03               	skipc
  6781     099B  0F4E               	incfsz	___flge@ff2+2,w
  6782     099C  299E               	goto	u2783
  6783     099D  299F               	goto	u2784
  6784     099E                     u2783:
  6785     099E  02D2               	subwf	??___flge+2,f
  6786     099F                     u2784:
  6787     099F  084F               	movf	___flge@ff2+3,w
  6788     09A0  1C03               	skipc
  6789     09A1  0F4F               	incfsz	___flge@ff2+3,w
  6790     09A2  29A4               	goto	u2785
  6791     09A3  29A5               	goto	u2786
  6792     09A4                     u2785:
  6793     09A4  02D3               	subwf	??___flge+3,f
  6794     09A5                     u2786:
  6795     09A5  0853               	movf	??___flge+3,w
  6796     09A6  00CF               	movwf	___flge@ff2+3
  6797     09A7  0852               	movf	??___flge+2,w
  6798     09A8  00CE               	movwf	___flge@ff2+2
  6799     09A9  0851               	movf	??___flge+1,w
  6800     09AA  00CD               	movwf	___flge@ff2+1
  6801     09AB  0850               	movf	??___flge,w
  6802     09AC  00CC               	movwf	___flge@ff2
  6803     09AD                     l571:
  6804     09AD  3080               	movlw	128
  6805     09AE  06CB               	xorwf	___flge@ff1+3,f
  6806     09AF  3080               	movlw	128
  6807     09B0  06CF               	xorwf	___flge@ff2+3,f
  6808     09B1  084F               	movf	___flge@ff2+3,w
  6809     09B2  024B               	subwf	___flge@ff1+3,w
  6810     09B3  1D03               	skipz
  6811     09B4  29BF               	goto	u2795
  6812     09B5  084E               	movf	___flge@ff2+2,w
  6813     09B6  024A               	subwf	___flge@ff1+2,w
  6814     09B7  1D03               	skipz
  6815     09B8  29BF               	goto	u2795
  6816     09B9  084D               	movf	___flge@ff2+1,w
  6817     09BA  0249               	subwf	___flge@ff1+1,w
  6818     09BB  1D03               	skipz
  6819     09BC  29BF               	goto	u2795
  6820     09BD  084C               	movf	___flge@ff2,w
  6821     09BE  0248               	subwf	___flge@ff1,w
  6822     09BF                     u2795:
  6823     09BF  1803               	skipnc
  6824     09C0  29C2               	goto	u2791
  6825     09C1  29C3               	goto	u2790
  6826     09C2                     u2791:
  6827     09C2  29C5               	goto	l2378
  6828     09C3                     u2790:
  6829     09C3                     l2376:
  6830     09C3  1003               	clrc
  6831     09C4  29C6               	goto	l576
  6832     09C5                     l2378:
  6833     09C5  1403               	setc
  6834     09C6                     l576:
  6835     09C6  0008               	return
  6836     09C7                     __end_of___flge:
  6837                           
  6838                           	psect	text14
  6839     16ED                     __ptext14:	
  6840 ;; *************** function ___awmod *****************
  6841 ;; Defined at:
  6842 ;;		line 5 in file "C:\Program Files\Microchip\xc8\v2.46\pic\sources\c99\common\awmod.c"
  6843 ;; Parameters:    Size  Location     Type
  6844 ;;  divisor         2    2[COMMON] int 
  6845 ;;  dividend        2    4[COMMON] int 
  6846 ;; Auto vars:     Size  Location     Type
  6847 ;;  sign            1    7[COMMON] unsigned char 
  6848 ;;  counter         1    6[COMMON] unsigned char 
  6849 ;; Return value:  Size  Location     Type
  6850 ;;                  2    2[COMMON] int 
  6851 ;; Registers used:
  6852 ;;		wreg, status,2, status,0, btemp+1
  6853 ;; Tracked objects:
  6854 ;;		On entry : 0/0
  6855 ;;		On exit  : 0/0
  6856 ;;		Unchanged: 0/0
  6857 ;; Data sizes:     COMMON   BANK0   BANK1   BANK3   BANK2
  6858 ;;      Params:         4       0       0       0       0
  6859 ;;      Locals:         2       0       0       0       0
  6860 ;;      Temps:          0       0       0       0       0
  6861 ;;      Totals:         6       0       0       0       0
  6862 ;;Total ram usage:        6 bytes
  6863 ;; Hardware stack levels used: 1
  6864 ;; Hardware stack levels required when called: 1
  6865 ;; This function calls:
  6866 ;;		Nothing
  6867 ;; This function is called by:
  6868 ;;		_run_program
  6869 ;; This function uses a non-reentrant model
  6870 ;;
  6871                           
  6872     16ED                     ___awmod:	
  6873                           ;psect for function ___awmod
  6874                           
  6875     16ED                     l2324:	
  6876                           ;incstack = 0
  6877                           ; Regs used in ___awmod: [wreg+status,2+status,0+btemp+1]
  6878                           
  6879     16ED  01F7               	clrf	___awmod@sign
  6880     16EE                     l2326:
  6881     16EE  1FF5               	btfss	___awmod@dividend+1,7
  6882     16EF  2EF1               	goto	u2641
  6883     16F0  2EF2               	goto	u2640
  6884     16F1                     u2641:
  6885     16F1  2EF9               	goto	l2332
  6886     16F2                     u2640:
  6887     16F2                     l2328:
  6888     16F2  09F4               	comf	___awmod@dividend,f
  6889     16F3  09F5               	comf	___awmod@dividend+1,f
  6890     16F4  0AF4               	incf	___awmod@dividend,f
  6891     16F5  1903               	skipnz
  6892     16F6  0AF5               	incf	___awmod@dividend+1,f
  6893     16F7                     l2330:
  6894     16F7  01F7               	clrf	___awmod@sign
  6895     16F8  0AF7               	incf	___awmod@sign,f
  6896     16F9                     l2332:
  6897     16F9  1FF3               	btfss	___awmod@divisor+1,7
  6898     16FA  2EFC               	goto	u2651
  6899     16FB  2EFD               	goto	u2650
  6900     16FC                     u2651:
  6901     16FC  2F02               	goto	l2336
  6902     16FD                     u2650:
  6903     16FD                     l2334:
  6904     16FD  09F2               	comf	___awmod@divisor,f
  6905     16FE  09F3               	comf	___awmod@divisor+1,f
  6906     16FF  0AF2               	incf	___awmod@divisor,f
  6907     1700  1903               	skipnz
  6908     1701  0AF3               	incf	___awmod@divisor+1,f
  6909     1702                     l2336:
  6910     1702  0872               	movf	___awmod@divisor,w
  6911     1703  0473               	iorwf	___awmod@divisor+1,w
  6912     1704  1903               	btfsc	3,2
  6913     1705  2F07               	goto	u2661
  6914     1706  2F08               	goto	u2660
  6915     1707                     u2661:
  6916     1707  2F37               	goto	l2354
  6917     1708                     u2660:
  6918     1708                     l2338:
  6919     1708  01F6               	clrf	___awmod@counter
  6920     1709  0AF6               	incf	___awmod@counter,f
  6921     170A  2F16               	goto	l2344
  6922     170B                     l2340:
  6923     170B  3001               	movlw	1
  6924     170C                     u2675:
  6925     170C  1003               	clrc
  6926     170D  0DF2               	rlf	___awmod@divisor,f
  6927     170E  0DF3               	rlf	___awmod@divisor+1,f
  6928     170F  3EFF               	addlw	-1
  6929     1710  1D03               	skipz
  6930     1711  2F0C               	goto	u2675
  6931     1712                     l2342:
  6932     1712  3001               	movlw	1
  6933     1713  00FF               	movwf	btemp+1
  6934     1714  087F               	movf	btemp+1,w
  6935     1715  07F6               	addwf	___awmod@counter,f
  6936     1716                     l2344:
  6937     1716  1FF3               	btfss	___awmod@divisor+1,7
  6938     1717  2F19               	goto	u2681
  6939     1718  2F1A               	goto	u2680
  6940     1719                     u2681:
  6941     1719  2F0B               	goto	l2340
  6942     171A                     u2680:
  6943     171A                     l2346:
  6944     171A  0873               	movf	___awmod@divisor+1,w
  6945     171B  0275               	subwf	___awmod@dividend+1,w
  6946     171C  1D03               	skipz
  6947     171D  2F20               	goto	u2695
  6948     171E  0872               	movf	___awmod@divisor,w
  6949     171F  0274               	subwf	___awmod@dividend,w
  6950     1720                     u2695:
  6951     1720  1C03               	skipc
  6952     1721  2F23               	goto	u2691
  6953     1722  2F24               	goto	u2690
  6954     1723                     u2691:
  6955     1723  2F2A               	goto	l2350
  6956     1724                     u2690:
  6957     1724                     l2348:
  6958     1724  0872               	movf	___awmod@divisor,w
  6959     1725  02F4               	subwf	___awmod@dividend,f
  6960     1726  0873               	movf	___awmod@divisor+1,w
  6961     1727  1C03               	skipc
  6962     1728  03F5               	decf	___awmod@dividend+1,f
  6963     1729  02F5               	subwf	___awmod@dividend+1,f
  6964     172A                     l2350:
  6965     172A  3001               	movlw	1
  6966     172B                     u2705:
  6967     172B  1003               	clrc
  6968     172C  0CF3               	rrf	___awmod@divisor+1,f
  6969     172D  0CF2               	rrf	___awmod@divisor,f
  6970     172E  3EFF               	addlw	-1
  6971     172F  1D03               	skipz
  6972     1730  2F2B               	goto	u2705
  6973     1731                     l2352:
  6974     1731  3001               	movlw	1
  6975     1732  02F6               	subwf	___awmod@counter,f
  6976     1733  1D03               	btfss	3,2
  6977     1734  2F36               	goto	u2711
  6978     1735  2F37               	goto	u2710
  6979     1736                     u2711:
  6980     1736  2F1A               	goto	l2346
  6981     1737                     u2710:
  6982     1737                     l2354:
  6983     1737  0877               	movf	___awmod@sign,w
  6984     1738  1903               	btfsc	3,2
  6985     1739  2F3B               	goto	u2721
  6986     173A  2F3C               	goto	u2720
  6987     173B                     u2721:
  6988     173B  2F41               	goto	l2358
  6989     173C                     u2720:
  6990     173C                     l2356:
  6991     173C  09F4               	comf	___awmod@dividend,f
  6992     173D  09F5               	comf	___awmod@dividend+1,f
  6993     173E  0AF4               	incf	___awmod@dividend,f
  6994     173F  1903               	skipnz
  6995     1740  0AF5               	incf	___awmod@dividend+1,f
  6996     1741                     l2358:
  6997     1741  0875               	movf	___awmod@dividend+1,w
  6998     1742  00F3               	movwf	?___awmod+1
  6999     1743  0874               	movf	___awmod@dividend,w
  7000     1744  00F2               	movwf	?___awmod
  7001     1745                     l556:
  7002     1745  0008               	return
  7003     1746                     __end_of___awmod:
  7004                           
  7005                           	psect	text15
  7006     0844                     __ptext15:	
  7007 ;; *************** function ___awdiv *****************
  7008 ;; Defined at:
  7009 ;;		line 5 in file "C:\Program Files\Microchip\xc8\v2.46\pic\sources\c99\common\awdiv.c"
  7010 ;; Parameters:    Size  Location     Type
  7011 ;;  divisor         2    2[COMMON] int 
  7012 ;;  dividend        2    4[COMMON] int 
  7013 ;; Auto vars:     Size  Location     Type
  7014 ;;  quotient        2    8[COMMON] int 
  7015 ;;  sign            1    7[COMMON] unsigned char 
  7016 ;;  counter         1    6[COMMON] unsigned char 
  7017 ;; Return value:  Size  Location     Type
  7018 ;;                  2    2[COMMON] int 
  7019 ;; Registers used:
  7020 ;;		wreg, status,2, status,0, btemp+1
  7021 ;; Tracked objects:
  7022 ;;		On entry : 0/0
  7023 ;;		On exit  : 0/0
  7024 ;;		Unchanged: 0/0
  7025 ;; Data sizes:     COMMON   BANK0   BANK1   BANK3   BANK2
  7026 ;;      Params:         4       0       0       0       0
  7027 ;;      Locals:         4       0       0       0       0
  7028 ;;      Temps:          0       0       0       0       0
  7029 ;;      Totals:         8       0       0       0       0
  7030 ;;Total ram usage:        8 bytes
  7031 ;; Hardware stack levels used: 1
  7032 ;; Hardware stack levels required when called: 1
  7033 ;; This function calls:
  7034 ;;		Nothing
  7035 ;; This function is called by:
  7036 ;;		_run_program
  7037 ;; This function uses a non-reentrant model
  7038 ;;
  7039                           
  7040     0844                     ___awdiv:	
  7041                           ;psect for function ___awdiv
  7042                           
  7043     0844                     l2280:	
  7044                           ;incstack = 0
  7045                           ; Regs used in ___awdiv: [wreg+status,2+status,0+btemp+1]
  7046                           
  7047     0844  01F7               	clrf	___awdiv@sign
  7048     0845                     l2282:
  7049     0845  1FF3               	btfss	___awdiv@divisor+1,7
  7050     0846  2848               	goto	u2541
  7051     0847  2849               	goto	u2540
  7052     0848                     u2541:
  7053     0848  2850               	goto	l2288
  7054     0849                     u2540:
  7055     0849                     l2284:
  7056     0849  09F2               	comf	___awdiv@divisor,f
  7057     084A  09F3               	comf	___awdiv@divisor+1,f
  7058     084B  0AF2               	incf	___awdiv@divisor,f
  7059     084C  1903               	skipnz
  7060     084D  0AF3               	incf	___awdiv@divisor+1,f
  7061     084E                     l2286:
  7062     084E  01F7               	clrf	___awdiv@sign
  7063     084F  0AF7               	incf	___awdiv@sign,f
  7064     0850                     l2288:
  7065     0850  1FF5               	btfss	___awdiv@dividend+1,7
  7066     0851  2853               	goto	u2551
  7067     0852  2854               	goto	u2550
  7068     0853                     u2551:
  7069     0853  285D               	goto	l2294
  7070     0854                     u2550:
  7071     0854                     l2290:
  7072     0854  09F4               	comf	___awdiv@dividend,f
  7073     0855  09F5               	comf	___awdiv@dividend+1,f
  7074     0856  0AF4               	incf	___awdiv@dividend,f
  7075     0857  1903               	skipnz
  7076     0858  0AF5               	incf	___awdiv@dividend+1,f
  7077     0859                     l2292:
  7078     0859  3001               	movlw	1
  7079     085A  00FF               	movwf	btemp+1
  7080     085B  087F               	movf	btemp+1,w
  7081     085C  06F7               	xorwf	___awdiv@sign,f
  7082     085D                     l2294:
  7083     085D  01F8               	clrf	___awdiv@quotient
  7084     085E  01F9               	clrf	___awdiv@quotient+1
  7085     085F                     l2296:
  7086     085F  0872               	movf	___awdiv@divisor,w
  7087     0860  0473               	iorwf	___awdiv@divisor+1,w
  7088     0861  1903               	btfsc	3,2
  7089     0862  2864               	goto	u2561
  7090     0863  2865               	goto	u2560
  7091     0864                     u2561:
  7092     0864  289C               	goto	l2316
  7093     0865                     u2560:
  7094     0865                     l2298:
  7095     0865  01F6               	clrf	___awdiv@counter
  7096     0866  0AF6               	incf	___awdiv@counter,f
  7097     0867  2873               	goto	l2304
  7098     0868                     l2300:
  7099     0868  3001               	movlw	1
  7100     0869                     u2575:
  7101     0869  1003               	clrc
  7102     086A  0DF2               	rlf	___awdiv@divisor,f
  7103     086B  0DF3               	rlf	___awdiv@divisor+1,f
  7104     086C  3EFF               	addlw	-1
  7105     086D  1D03               	skipz
  7106     086E  2869               	goto	u2575
  7107     086F                     l2302:
  7108     086F  3001               	movlw	1
  7109     0870  00FF               	movwf	btemp+1
  7110     0871  087F               	movf	btemp+1,w
  7111     0872  07F6               	addwf	___awdiv@counter,f
  7112     0873                     l2304:
  7113     0873  1FF3               	btfss	___awdiv@divisor+1,7
  7114     0874  2876               	goto	u2581
  7115     0875  2877               	goto	u2580
  7116     0876                     u2581:
  7117     0876  2868               	goto	l2300
  7118     0877                     u2580:
  7119     0877                     l2306:
  7120     0877  3001               	movlw	1
  7121     0878                     u2595:
  7122     0878  1003               	clrc
  7123     0879  0DF8               	rlf	___awdiv@quotient,f
  7124     087A  0DF9               	rlf	___awdiv@quotient+1,f
  7125     087B  3EFF               	addlw	-1
  7126     087C  1D03               	skipz
  7127     087D  2878               	goto	u2595
  7128     087E  0873               	movf	___awdiv@divisor+1,w
  7129     087F  0275               	subwf	___awdiv@dividend+1,w
  7130     0880  1D03               	skipz
  7131     0881  2884               	goto	u2605
  7132     0882  0872               	movf	___awdiv@divisor,w
  7133     0883  0274               	subwf	___awdiv@dividend,w
  7134     0884                     u2605:
  7135     0884  1C03               	skipc
  7136     0885  2887               	goto	u2601
  7137     0886  2888               	goto	u2600
  7138     0887                     u2601:
  7139     0887  288F               	goto	l2312
  7140     0888                     u2600:
  7141     0888                     l2308:
  7142     0888  0872               	movf	___awdiv@divisor,w
  7143     0889  02F4               	subwf	___awdiv@dividend,f
  7144     088A  0873               	movf	___awdiv@divisor+1,w
  7145     088B  1C03               	skipc
  7146     088C  03F5               	decf	___awdiv@dividend+1,f
  7147     088D  02F5               	subwf	___awdiv@dividend+1,f
  7148     088E                     l2310:
  7149     088E  1478               	bsf	___awdiv@quotient,0
  7150     088F                     l2312:
  7151     088F  3001               	movlw	1
  7152     0890                     u2615:
  7153     0890  1003               	clrc
  7154     0891  0CF3               	rrf	___awdiv@divisor+1,f
  7155     0892  0CF2               	rrf	___awdiv@divisor,f
  7156     0893  3EFF               	addlw	-1
  7157     0894  1D03               	skipz
  7158     0895  2890               	goto	u2615
  7159     0896                     l2314:
  7160     0896  3001               	movlw	1
  7161     0897  02F6               	subwf	___awdiv@counter,f
  7162     0898  1D03               	btfss	3,2
  7163     0899  289B               	goto	u2621
  7164     089A  289C               	goto	u2620
  7165     089B                     u2621:
  7166     089B  2877               	goto	l2306
  7167     089C                     u2620:
  7168     089C                     l2316:
  7169     089C  0877               	movf	___awdiv@sign,w
  7170     089D  1903               	btfsc	3,2
  7171     089E  28A0               	goto	u2631
  7172     089F  28A1               	goto	u2630
  7173     08A0                     u2631:
  7174     08A0  28A6               	goto	l2320
  7175     08A1                     u2630:
  7176     08A1                     l2318:
  7177     08A1  09F8               	comf	___awdiv@quotient,f
  7178     08A2  09F9               	comf	___awdiv@quotient+1,f
  7179     08A3  0AF8               	incf	___awdiv@quotient,f
  7180     08A4  1903               	skipnz
  7181     08A5  0AF9               	incf	___awdiv@quotient+1,f
  7182     08A6                     l2320:
  7183     08A6  0879               	movf	___awdiv@quotient+1,w
  7184     08A7  00F3               	movwf	?___awdiv+1
  7185     08A8  0878               	movf	___awdiv@quotient,w
  7186     08A9  00F2               	movwf	?___awdiv
  7187     08AA                     l543:
  7188     08AA  0008               	return
  7189     08AB                     __end_of___awdiv:
  7190                           
  7191                           	psect	text16
  7192     17A1                     __ptext16:	
  7193 ;; *************** function _read_digital_keypad *****************
  7194 ;; Defined at:
  7195 ;;		line 10 in file "digital_keypad.c"
  7196 ;; Parameters:    Size  Location     Type
  7197 ;;  mode            1    wreg     unsigned char 
  7198 ;; Auto vars:     Size  Location     Type
  7199 ;;  mode            1    3[COMMON] unsigned char 
  7200 ;; Return value:  Size  Location     Type
  7201 ;;                  1    wreg      unsigned char 
  7202 ;; Registers used:
  7203 ;;		wreg, status,2, status,0, btemp+1
  7204 ;; Tracked objects:
  7205 ;;		On entry : 0/0
  7206 ;;		On exit  : 0/0
  7207 ;;		Unchanged: 0/0
  7208 ;; Data sizes:     COMMON   BANK0   BANK1   BANK3   BANK2
  7209 ;;      Params:         0       0       0       0       0
  7210 ;;      Locals:         1       0       0       0       0
  7211 ;;      Temps:          1       0       0       0       0
  7212 ;;      Totals:         2       0       0       0       0
  7213 ;;Total ram usage:        2 bytes
  7214 ;; Hardware stack levels used: 1
  7215 ;; Hardware stack levels required when called: 1
  7216 ;; This function calls:
  7217 ;;		Nothing
  7218 ;; This function is called by:
  7219 ;;		_main
  7220 ;; This function uses a non-reentrant model
  7221 ;;
  7222                           
  7223     17A1                     _read_digital_keypad:	
  7224                           ;psect for function _read_digital_keypad
  7225                           
  7226                           
  7227                           ;incstack = 0
  7228                           ; Regs used in _read_digital_keypad: [wreg+status,2+status,0+btemp+1]
  7229                           ;read_digital_keypad@mode stored from wreg
  7230     17A1  00F3               	movwf	read_digital_keypad@mode
  7231     17A2                     l2628:
  7232                           
  7233                           ;digital_keypad.c: 10: unsigned char read_digital_keypad(unsigned char mode);digital_key
      +                          pad.c: 11: {;digital_keypad.c: 12:     static unsigned char once = 1;;digital_keypad.c: 
      +                          13:      static unsigned char longpress;;digital_keypad.c: 14:     static unsigned char 
      +                          prev_key ;;digital_keypad.c: 16:     if (mode == 0)
  7234     17A2  0873               	movf	read_digital_keypad@mode,w
  7235     17A3  1D03               	btfss	3,2
  7236     17A4  2FA6               	goto	u3411
  7237     17A5  2FA7               	goto	u3410
  7238     17A6                     u3411:
  7239     17A6  2FAC               	goto	l2636
  7240     17A7                     u3410:
  7241     17A7                     l2630:
  7242                           
  7243                           ;digital_keypad.c: 17:     {;digital_keypad.c: 18:         return PORTB & 0x3F;
  7244     17A7  1283               	bcf	3,5	;RP0=0, select bank0
  7245     17A8  1303               	bcf	3,6	;RP1=0, select bank0
  7246     17A9  0806               	movf	6,w	;volatile
  7247     17AA  393F               	andlw	63
  7248     17AB  2FFF               	goto	l268
  7249     17AC                     l2636:
  7250                           
  7251                           ;digital_keypad.c: 21:     {;digital_keypad.c: 22:         if (((PORTB & 0x3F) != 0x3F) 
      +                          && once)
  7252     17AC  303F               	movlw	63
  7253     17AD  1283               	bcf	3,5	;RP0=0, select bank0
  7254     17AE  1303               	bcf	3,6	;RP1=0, select bank0
  7255     17AF  0506               	andwf	6,w	;volatile
  7256     17B0  00F2               	movwf	??_read_digital_keypad
  7257     17B1  303F               	movlw	63
  7258     17B2  0672               	xorwf	??_read_digital_keypad,w
  7259     17B3  1903               	btfsc	3,2
  7260     17B4  2FB6               	goto	u3421
  7261     17B5  2FB7               	goto	u3420
  7262     17B6                     u3421:
  7263     17B6  2FC2               	goto	l2644
  7264     17B7                     u3420:
  7265     17B7                     l2638:
  7266     17B7  086D               	movf	read_digital_keypad@once,w
  7267     17B8  1903               	btfsc	3,2
  7268     17B9  2FBB               	goto	u3431
  7269     17BA  2FBC               	goto	u3430
  7270     17BB                     u3431:
  7271     17BB  2FC2               	goto	l2644
  7272     17BC                     u3430:
  7273     17BC                     l2640:
  7274                           
  7275                           ;digital_keypad.c: 23:         {;digital_keypad.c: 24:             once = 0;
  7276     17BC  01ED               	clrf	read_digital_keypad@once
  7277                           
  7278                           ;digital_keypad.c: 25:             longpress = 0;
  7279     17BD  01EA               	clrf	read_digital_keypad@longpress
  7280     17BE                     l2642:
  7281                           
  7282                           ;digital_keypad.c: 26:             prev_key = PORTB & 0x3F;
  7283     17BE  0806               	movf	6,w	;volatile
  7284     17BF  393F               	andlw	63
  7285     17C0  00E9               	movwf	read_digital_keypad@prev_key
  7286                           
  7287                           ;digital_keypad.c: 27:         }
  7288     17C1  2FFE               	goto	l2674
  7289     17C2                     l2644:
  7290     17C2  086D               	movf	read_digital_keypad@once,w
  7291     17C3  1D03               	btfss	3,2
  7292     17C4  2FC6               	goto	u3441
  7293     17C5  2FC7               	goto	u3440
  7294     17C6                     u3441:
  7295     17C6  2FD9               	goto	l2652
  7296     17C7                     u3440:
  7297     17C7                     l2646:
  7298     17C7  0806               	movf	6,w	;volatile
  7299     17C8  393F               	andlw	63
  7300     17C9  0669               	xorwf	read_digital_keypad@prev_key,w
  7301     17CA  1D03               	skipz
  7302     17CB  2FCD               	goto	u3451
  7303     17CC  2FCE               	goto	u3450
  7304     17CD                     u3451:
  7305     17CD  2FD9               	goto	l2652
  7306     17CE                     u3450:
  7307     17CE                     l2648:
  7308     17CE  301E               	movlw	30
  7309     17CF  026A               	subwf	read_digital_keypad@longpress,w
  7310     17D0  1803               	skipnc
  7311     17D1  2FD3               	goto	u3461
  7312     17D2  2FD4               	goto	u3460
  7313     17D3                     u3461:
  7314     17D3  2FD9               	goto	l2652
  7315     17D4                     u3460:
  7316     17D4                     l2650:
  7317                           
  7318                           ;digital_keypad.c: 30:         {;digital_keypad.c: 31:             longpress++;
  7319     17D4  3001               	movlw	1
  7320     17D5  00FF               	movwf	btemp+1
  7321     17D6  087F               	movf	btemp+1,w
  7322     17D7  07EA               	addwf	read_digital_keypad@longpress,f
  7323                           
  7324                           ;digital_keypad.c: 32:         }
  7325     17D8  2FFE               	goto	l2674
  7326     17D9                     l2652:
  7327     17D9  301E               	movlw	30
  7328     17DA  066A               	xorwf	read_digital_keypad@longpress,w
  7329     17DB  1D03               	btfss	3,2
  7330     17DC  2FDE               	goto	u3471
  7331     17DD  2FDF               	goto	u3470
  7332     17DE                     u3471:
  7333     17DE  2FE6               	goto	l2662
  7334     17DF                     u3470:
  7335     17DF                     l2654:
  7336                           
  7337                           ;digital_keypad.c: 35:         {;digital_keypad.c: 36:             longpress++;
  7338     17DF  3001               	movlw	1
  7339     17E0  00FF               	movwf	btemp+1
  7340     17E1  087F               	movf	btemp+1,w
  7341     17E2  07EA               	addwf	read_digital_keypad@longpress,f
  7342     17E3                     l2656:
  7343                           
  7344                           ;digital_keypad.c: 38:             return prev_key | 0x80;
  7345     17E3  0869               	movf	read_digital_keypad@prev_key,w
  7346     17E4  3880               	iorlw	128
  7347     17E5  2FFF               	goto	l268
  7348     17E6                     l2662:
  7349     17E6  303F               	movlw	63
  7350     17E7  0506               	andwf	6,w	;volatile
  7351     17E8  00F2               	movwf	??_read_digital_keypad
  7352     17E9  303F               	movlw	63
  7353     17EA  0672               	xorwf	??_read_digital_keypad,w
  7354     17EB  1D03               	btfss	3,2
  7355     17EC  2FEE               	goto	u3481
  7356     17ED  2FEF               	goto	u3480
  7357     17EE                     u3481:
  7358     17EE  2FFE               	goto	l2674
  7359     17EF                     u3480:
  7360     17EF                     l2664:
  7361     17EF  086D               	movf	read_digital_keypad@once,w
  7362     17F0  1D03               	btfss	3,2
  7363     17F1  2FF3               	goto	u3491
  7364     17F2  2FF4               	goto	u3490
  7365     17F3                     u3491:
  7366     17F3  2FFE               	goto	l2674
  7367     17F4                     u3490:
  7368     17F4                     l2666:
  7369                           
  7370                           ;digital_keypad.c: 42:         {;digital_keypad.c: 43:             once = 1;
  7371     17F4  01ED               	clrf	read_digital_keypad@once
  7372     17F5  0AED               	incf	read_digital_keypad@once,f
  7373     17F6                     l2668:
  7374                           
  7375                           ;digital_keypad.c: 44:             if(longpress < 30)
  7376     17F6  301E               	movlw	30
  7377     17F7  026A               	subwf	read_digital_keypad@longpress,w
  7378     17F8  1803               	skipnc
  7379     17F9  2FFB               	goto	u3501
  7380     17FA  2FFC               	goto	u3500
  7381     17FB                     u3501:
  7382     17FB  2FFE               	goto	l273
  7383     17FC                     u3500:
  7384     17FC                     l2670:
  7385                           
  7386                           ;digital_keypad.c: 45:             {;digital_keypad.c: 46:                 return prev_k
      +                          ey;
  7387     17FC  0869               	movf	read_digital_keypad@prev_key,w
  7388     17FD  2FFF               	goto	l268
  7389     17FE                     l273:
  7390     17FE                     l2674:
  7391                           
  7392                           ;digital_keypad.c: 52:     return 0x3F;
  7393     17FE  303F               	movlw	63
  7394     17FF                     l268:
  7395     17FF  0008               	return
  7396     1800                     __end_of_read_digital_keypad:
  7397                           
  7398                           	psect	text17
  7399     1746                     __ptext17:	
  7400 ;; *************** function _power_on_screen *****************
  7401 ;; Defined at:
  7402 ;;		line 145 in file "main.c"
  7403 ;; Parameters:    Size  Location     Type
  7404 ;;		None
  7405 ;; Auto vars:     Size  Location     Type
  7406 ;;  i               1    6[BANK0 ] unsigned char 
  7407 ;;  i               1    5[BANK0 ] unsigned char 
  7408 ;; Return value:  Size  Location     Type
  7409 ;;                  1    wreg      void 
  7410 ;; Registers used:
  7411 ;;		wreg, fsr0l, fsr0h, status,2, status,0, btemp+1, pclath, cstack
  7412 ;; Tracked objects:
  7413 ;;		On entry : 0/0
  7414 ;;		On exit  : 0/0
  7415 ;;		Unchanged: 0/0
  7416 ;; Data sizes:     COMMON   BANK0   BANK1   BANK3   BANK2
  7417 ;;      Params:         0       0       0       0       0
  7418 ;;      Locals:         0       2       0       0       0
  7419 ;;      Temps:          0       3       0       0       0
  7420 ;;      Totals:         0       5       0       0       0
  7421 ;;Total ram usage:        5 bytes
  7422 ;; Hardware stack levels used: 1
  7423 ;; Hardware stack levels required when called: 3
  7424 ;; This function calls:
  7425 ;;		_clcd_print
  7426 ;;		_clcd_putch
  7427 ;;		_clear_screen
  7428 ;; This function is called by:
  7429 ;;		_main
  7430 ;; This function uses a non-reentrant model
  7431 ;;
  7432                           
  7433     1746                     _power_on_screen:	
  7434                           ;psect for function _power_on_screen
  7435                           
  7436     1746                     l3334:	
  7437                           ;incstack = 0
  7438                           ; Regs used in _power_on_screen: [wreg-fsr0h+status,2+status,0+btemp+1+pclath+cstack]
  7439                           
  7440                           
  7441                           ;main.c: 148: 
  7442     1746  1283               	bcf	3,5	;RP0=0, select bank0
  7443     1747  1303               	bcf	3,6	;RP1=0, select bank0
  7444     1748  01A5               	clrf	power_on_screen@i
  7445     1749                     l3340:
  7446                           
  7447                           ;main.c: 149:  void washing_program_display( unsigned char key);main.c: 150: {
  7448     1749  0825               	movf	power_on_screen@i,w
  7449     174A  3E80               	addlw	128
  7450     174B  00A0               	movwf	clcd_putch@addr
  7451     174C  30FF               	movlw	255
  7452     174D  160A  118A  2558  160A  118A  	fcall	_clcd_putch
  7453     1752                     l3342:
  7454                           
  7455                           ;main.c: 151: 
  7456     1752  3001               	movlw	1
  7457     1753  00FF               	movwf	btemp+1
  7458     1754  087F               	movf	btemp+1,w
  7459     1755  1283               	bcf	3,5	;RP0=0, select bank0
  7460     1756  1303               	bcf	3,6	;RP1=0, select bank0
  7461     1757  07A5               	addwf	power_on_screen@i,f
  7462     1758                     l3344:
  7463     1758  3010               	movlw	16
  7464     1759  0225               	subwf	power_on_screen@i,w
  7465     175A  1C03               	skipc
  7466     175B  2F5D               	goto	u4361
  7467     175C  2F5E               	goto	u4360
  7468     175D                     u4361:
  7469     175D  2F49               	goto	l3340
  7470     175E                     u4360:
  7471     175E                     l3346:
  7472                           
  7473                           ;main.c: 152:     if(reset_mode == 0x10)
  7474     175E  3084               	movlw	low (STR_24| (0+32768))
  7475     175F  00F6               	movwf	clcd_print@str
  7476     1760  3090               	movlw	high (STR_24| (0+32768))
  7477     1761  00F7               	movwf	clcd_print@str+1
  7478     1762  30C2               	movlw	194
  7479     1763  00F8               	movwf	clcd_print@addr
  7480     1764  160A  118A  2615  160A  118A  	fcall	_clcd_print
  7481                           
  7482                           ;main.c: 153:     {
  7483     1769  3011               	movlw	low (STR_20| (0+32768))
  7484     176A  00F6               	movwf	clcd_print@str
  7485     176B  3090               	movlw	high (STR_20| (0+32768))
  7486     176C  00F7               	movwf	clcd_print@str+1
  7487     176D  3091               	movlw	145
  7488     176E  00F8               	movwf	clcd_print@addr
  7489     176F  160A  118A  2615  160A  118A  	fcall	_clcd_print
  7490     1774                     l3348:
  7491                           
  7492                           ;main.c: 154:         clear_screen();
  7493     1774  1283               	bcf	3,5	;RP0=0, select bank0
  7494     1775  1303               	bcf	3,6	;RP1=0, select bank0
  7495     1776  01A6               	clrf	power_on_screen@i_144
  7496     1777                     l3354:
  7497                           
  7498                           ;main.c: 156: ;main.c: 157:     }
  7499     1777  0826               	movf	power_on_screen@i_144,w
  7500     1778  3ED0               	addlw	208
  7501     1779  00A0               	movwf	clcd_putch@addr
  7502     177A  30FF               	movlw	255
  7503     177B  160A  118A  2558  160A  118A  	fcall	_clcd_putch
  7504     1780                     l3356:
  7505                           
  7506                           ;main.c: 158: 
  7507     1780  3001               	movlw	1
  7508     1781  00FF               	movwf	btemp+1
  7509     1782  087F               	movf	btemp+1,w
  7510     1783  1283               	bcf	3,5	;RP0=0, select bank0
  7511     1784  1303               	bcf	3,6	;RP1=0, select bank0
  7512     1785  07A6               	addwf	power_on_screen@i_144,f
  7513     1786                     l3358:
  7514     1786  3010               	movlw	16
  7515     1787  0226               	subwf	power_on_screen@i_144,w
  7516     1788  1C03               	skipc
  7517     1789  2F8B               	goto	u4371
  7518     178A  2F8C               	goto	u4370
  7519     178B                     u4371:
  7520     178B  2F77               	goto	l3354
  7521     178C                     u4370:
  7522     178C                     l3360:
  7523                           
  7524                           ;main.c: 160: 
  7525     178C  301A               	movlw	26
  7526     178D  1283               	bcf	3,5	;RP0=0, select bank0
  7527     178E  1303               	bcf	3,6	;RP1=0, select bank0
  7528     178F  00A4               	movwf	??_power_on_screen+2
  7529     1790  305E               	movlw	94
  7530     1791  00A3               	movwf	??_power_on_screen+1
  7531     1792  306D               	movlw	109
  7532     1793  00A2               	movwf	??_power_on_screen
  7533     1794                     u4737:
  7534     1794  0BA2               	decfsz	??_power_on_screen,f
  7535     1795  2F94               	goto	u4737
  7536     1796  0BA3               	decfsz	??_power_on_screen+1,f
  7537     1797  2F94               	goto	u4737
  7538     1798  0BA4               	decfsz	??_power_on_screen+2,f
  7539     1799  2F94               	goto	u4737
  7540     179A  2F9B               	nop2
  7541     179B                     l3362:
  7542                           
  7543                           ;main.c: 162:     {
  7544     179B  160A  118A  2538  160A  118A  	fcall	_clear_screen
  7545     17A0                     l106:
  7546     17A0  0008               	return
  7547     17A1                     __end_of_power_on_screen:
  7548                           
  7549                           	psect	text18
  7550     1538                     __ptext18:	
  7551 ;; *************** function _clear_screen *****************
  7552 ;; Defined at:
  7553 ;;		line 64 in file "clcd.c"
  7554 ;; Parameters:    Size  Location     Type
  7555 ;;		None
  7556 ;; Auto vars:     Size  Location     Type
  7557 ;;		None
  7558 ;; Return value:  Size  Location     Type
  7559 ;;                  1    wreg      void 
  7560 ;; Registers used:
  7561 ;;		wreg, status,2, status,0, pclath, cstack
  7562 ;; Tracked objects:
  7563 ;;		On entry : 0/0
  7564 ;;		On exit  : 0/0
  7565 ;;		Unchanged: 0/0
  7566 ;; Data sizes:     COMMON   BANK0   BANK1   BANK3   BANK2
  7567 ;;      Params:         0       0       0       0       0
  7568 ;;      Locals:         0       0       0       0       0
  7569 ;;      Temps:          1       0       0       0       0
  7570 ;;      Totals:         1       0       0       0       0
  7571 ;;Total ram usage:        1 bytes
  7572 ;; Hardware stack levels used: 1
  7573 ;; Hardware stack levels required when called: 2
  7574 ;; This function calls:
  7575 ;;		_clcd_write
  7576 ;; This function is called by:
  7577 ;;		_main
  7578 ;;		_power_on_screen
  7579 ;;		_washing_program_display
  7580 ;;		_water_level_display
  7581 ;;		_run_program
  7582 ;;		_door_status_check
  7583 ;; This function uses a non-reentrant model
  7584 ;;
  7585                           
  7586     1538                     _clear_screen:	
  7587                           ;psect for function _clear_screen
  7588                           
  7589     1538                     l3108:	
  7590                           ;incstack = 0
  7591                           ; Regs used in _clear_screen: [wreg+status,2+status,0+pclath+cstack]
  7592                           
  7593                           
  7594                           ;clcd.c: 67:      clcd_write(0x01, 0);
  7595     1538  01F2               	clrf	clcd_write@mode
  7596     1539  3001               	movlw	1
  7597     153A  160A  118A  2586  160A  118A  	fcall	_clcd_write
  7598     153F                     l3110:
  7599                           
  7600                           ;clcd.c: 68:     _delay((unsigned long)((100)*(20000000/4000000.0)));
  7601     153F  30A6               	movlw	166
  7602     1540  00F6               	movwf	??_clear_screen
  7603     1541                     u4747:
  7604     1541  0BF6               	decfsz	??_clear_screen,f
  7605     1542  2D41               	goto	u4747
  7606     1543  0000               	nop
  7607     1544                     l251:
  7608     1544  0008               	return
  7609     1545                     __end_of_clear_screen:
  7610                           
  7611                           	psect	text19
  7612     1558                     __ptext19:	
  7613 ;; *************** function _clcd_putch *****************
  7614 ;; Defined at:
  7615 ;;		line 48 in file "clcd.c"
  7616 ;; Parameters:    Size  Location     Type
  7617 ;;  data            1    wreg     const unsigned char 
  7618 ;;  addr            1    0[BANK0 ] unsigned char 
  7619 ;; Auto vars:     Size  Location     Type
  7620 ;;  data            1    1[BANK0 ] const unsigned char 
  7621 ;; Return value:  Size  Location     Type
  7622 ;;                  1    wreg      void 
  7623 ;; Registers used:
  7624 ;;		wreg, status,2, status,0, pclath, cstack
  7625 ;; Tracked objects:
  7626 ;;		On entry : 0/0
  7627 ;;		On exit  : 0/0
  7628 ;;		Unchanged: 0/0
  7629 ;; Data sizes:     COMMON   BANK0   BANK1   BANK3   BANK2
  7630 ;;      Params:         0       1       0       0       0
  7631 ;;      Locals:         0       1       0       0       0
  7632 ;;      Temps:          0       0       0       0       0
  7633 ;;      Totals:         0       2       0       0       0
  7634 ;;Total ram usage:        2 bytes
  7635 ;; Hardware stack levels used: 1
  7636 ;; Hardware stack levels required when called: 2
  7637 ;; This function calls:
  7638 ;;		_clcd_write
  7639 ;; This function is called by:
  7640 ;;		_power_on_screen
  7641 ;;		_washing_program_display
  7642 ;;		_water_level_display
  7643 ;;		_run_program
  7644 ;; This function uses a non-reentrant model
  7645 ;;
  7646                           
  7647     1558                     _clcd_putch:	
  7648                           ;psect for function _clcd_putch
  7649                           
  7650                           
  7651                           ;incstack = 0
  7652                           ; Regs used in _clcd_putch: [wreg+status,2+status,0+pclath+cstack]
  7653                           ;clcd_putch@data stored from wreg
  7654     1558  1283               	bcf	3,5	;RP0=0, select bank0
  7655     1559  1303               	bcf	3,6	;RP1=0, select bank0
  7656     155A  00A1               	movwf	clcd_putch@data
  7657     155B                     l3154:
  7658                           
  7659                           ;clcd.c: 48: void clcd_putch(const char data, unsigned char addr);clcd.c: 49: {;clcd.c: 
      +                          50:     clcd_write(addr, 0);
  7660     155B  01F2               	clrf	clcd_write@mode
  7661     155C  0820               	movf	clcd_putch@addr,w
  7662     155D  160A  118A  2586  160A  118A  	fcall	_clcd_write
  7663                           
  7664                           ;clcd.c: 51:     clcd_write(data, 1);
  7665     1562  01F2               	clrf	clcd_write@mode
  7666     1563  0AF2               	incf	clcd_write@mode,f
  7667     1564  1283               	bcf	3,5	;RP0=0, select bank0
  7668     1565  1303               	bcf	3,6	;RP1=0, select bank0
  7669     1566  0821               	movf	clcd_putch@data,w
  7670     1567  160A  118A  2586  160A  118A  	fcall	_clcd_write
  7671     156C                     l242:
  7672     156C  0008               	return
  7673     156D                     __end_of_clcd_putch:
  7674                           
  7675                           	psect	text20
  7676     1615                     __ptext20:	
  7677 ;; *************** function _clcd_print *****************
  7678 ;; Defined at:
  7679 ;;		line 54 in file "clcd.c"
  7680 ;; Parameters:    Size  Location     Type
  7681 ;;  str             2    6[COMMON] PTR const unsigned char 
  7682 ;;		 -> STR_47(17), STR_46(7), STR_45(11), STR_44(13), 
  7683 ;;		 -> STR_43(12), STR_42(15), STR_41(15), STR_40(6), 
  7684 ;;		 -> STR_39(6), STR_38(6), STR_37(6), STR_36(6), 
  7685 ;;		 -> STR_35(6), STR_34(6), STR_33(17), STR_32(7), 
  7686 ;;		 -> STR_31(11), STR_30(8), STR_29(8), STR_28(6), 
  7687 ;;		 -> STR_27(13), STR_26(16), STR_25(16), STR_24(12), 
  7688 ;;		 -> STR_23(10), STR_22(11), STR_21(13), STR_20(16), 
  7689 ;;		 -> STR_19(10), STR_18(14), STR_17(4), STR_16(5), 
  7690 ;;		 -> STR_15(7), STR_14(4), STR_13(5), STR_12(11), 
  7691 ;;		 -> STR_11(10), STR_10(9), STR_9(10), STR_8(10), 
  7692 ;;		 -> STR_7(9), STR_6(11), STR_5(10), STR_4(7), 
  7693 ;;		 -> STR_3(10), STR_2(6), STR_1(6), 
  7694 ;;  addr            1    8[COMMON] unsigned char 
  7695 ;; Auto vars:     Size  Location     Type
  7696 ;;		None
  7697 ;; Return value:  Size  Location     Type
  7698 ;;                  1    wreg      void 
  7699 ;; Registers used:
  7700 ;;		wreg, fsr0l, fsr0h, status,2, status,0, btemp+1, pclath, cstack
  7701 ;; Tracked objects:
  7702 ;;		On entry : 0/0
  7703 ;;		On exit  : 0/0
  7704 ;;		Unchanged: 0/0
  7705 ;; Data sizes:     COMMON   BANK0   BANK1   BANK3   BANK2
  7706 ;;      Params:         3       0       0       0       0
  7707 ;;      Locals:         0       0       0       0       0
  7708 ;;      Temps:          0       0       0       0       0
  7709 ;;      Totals:         3       0       0       0       0
  7710 ;;Total ram usage:        3 bytes
  7711 ;; Hardware stack levels used: 1
  7712 ;; Hardware stack levels required when called: 2
  7713 ;; This function calls:
  7714 ;;		_clcd_write
  7715 ;; This function is called by:
  7716 ;;		_main
  7717 ;;		_power_on_screen
  7718 ;;		_washing_program_display
  7719 ;;		_water_level_display
  7720 ;;		_run_program
  7721 ;;		_door_status_check
  7722 ;; This function uses a non-reentrant model
  7723 ;;
  7724                           
  7725     1615                     _clcd_print:	
  7726                           ;psect for function _clcd_print
  7727                           
  7728     1615                     l3100:	
  7729                           ;incstack = 0
  7730                           ; Regs used in _clcd_print: [wreg-fsr0h+status,2+status,0+btemp+1+pclath+cstack]
  7731                           
  7732                           
  7733                           ;clcd.c: 54: void clcd_print(const char *str, unsigned char addr);clcd.c: 55: {;clcd.c: 
      +                          56:     clcd_write(addr, 0);
  7734     1615  01F2               	clrf	clcd_write@mode
  7735     1616  0878               	movf	clcd_print@addr,w
  7736     1617  160A  118A  2586  160A  118A  	fcall	_clcd_write
  7737                           
  7738                           ;clcd.c: 58:     while (*str != '\0')
  7739     161C  2E33               	goto	l3106
  7740     161D                     l3102:
  7741                           
  7742                           ;clcd.c: 59:     {;clcd.c: 60:         clcd_write(*str, 1);
  7743     161D  01F2               	clrf	clcd_write@mode
  7744     161E  0AF2               	incf	clcd_write@mode,f
  7745     161F  0877               	movf	clcd_print@str+1,w
  7746     1620  00FF               	movwf	btemp+1
  7747     1621  0876               	movf	clcd_print@str,w
  7748     1622  0084               	movwf	4
  7749     1623  160A  118A  217B  160A  118A  	fcall	stringtab
  7750     1628  160A  118A  2586  160A  118A  	fcall	_clcd_write
  7751     162D                     l3104:
  7752                           
  7753                           ;clcd.c: 61:         str++;
  7754     162D  3001               	movlw	1
  7755     162E  07F6               	addwf	clcd_print@str,f
  7756     162F  1803               	skipnc
  7757     1630  0AF7               	incf	clcd_print@str+1,f
  7758     1631  3000               	movlw	0
  7759     1632  07F7               	addwf	clcd_print@str+1,f
  7760     1633                     l3106:
  7761                           
  7762                           ;clcd.c: 58:     while (*str != '\0')
  7763     1633  0877               	movf	clcd_print@str+1,w
  7764     1634  1283               	bcf	3,5	;RP0=0, select bank0
  7765     1635  1303               	bcf	3,6	;RP1=0, select bank0
  7766     1636  00FF               	movwf	btemp+1
  7767     1637  0876               	movf	clcd_print@str,w
  7768     1638  0084               	movwf	4
  7769     1639  160A  118A  217B  160A  118A  	fcall	stringtab
  7770     163E  3A00               	xorlw	0
  7771     163F  1D03               	skipz
  7772     1640  2E42               	goto	u3931
  7773     1641  2E43               	goto	u3930
  7774     1642                     u3931:
  7775     1642  2E1D               	goto	l3102
  7776     1643                     u3930:
  7777     1643                     l248:
  7778     1643  0008               	return
  7779     1644                     __end_of_clcd_print:
  7780                           
  7781                           	psect	text21
  7782     156D                     __ptext21:	
  7783 ;; *************** function _init_config *****************
  7784 ;; Defined at:
  7785 ;;		line 17 in file "main.c"
  7786 ;; Parameters:    Size  Location     Type
  7787 ;;		None
  7788 ;; Auto vars:     Size  Location     Type
  7789 ;;		None
  7790 ;; Return value:  Size  Location     Type
  7791 ;;                  1    wreg      void 
  7792 ;; Registers used:
  7793 ;;		wreg, status,2, status,0, pclath, cstack
  7794 ;; Tracked objects:
  7795 ;;		On entry : 0/0
  7796 ;;		On exit  : 0/0
  7797 ;;		Unchanged: 0/0
  7798 ;; Data sizes:     COMMON   BANK0   BANK1   BANK3   BANK2
  7799 ;;      Params:         0       0       0       0       0
  7800 ;;      Locals:         0       0       0       0       0
  7801 ;;      Temps:          0       0       0       0       0
  7802 ;;      Totals:         0       0       0       0       0
  7803 ;;Total ram usage:        0 bytes
  7804 ;; Hardware stack levels used: 1
  7805 ;; Hardware stack levels required when called: 4
  7806 ;; This function calls:
  7807 ;;		_init_clcd
  7808 ;;		_init_digital_keypad
  7809 ;;		_init_timer2
  7810 ;; This function is called by:
  7811 ;;		_main
  7812 ;; This function uses a non-reentrant model
  7813 ;;
  7814                           
  7815     156D                     _init_config:	
  7816                           ;psect for function _init_config
  7817                           
  7818     156D                     l3322:	
  7819                           ;incstack = 0
  7820                           ; Regs used in _init_config: [wreg+status,2+status,0+pclath+cstack]
  7821                           
  7822                           
  7823                           ;main.c: 20: 
  7824     156D  160A  118A  2527  160A  118A  	fcall	_init_digital_keypad
  7825                           
  7826                           ;main.c: 24: unsigned char *washing_prog[]={"Daily","Heavy","Delicates","Whites","Stainw
      +                          ash","Ecocottons","Woollens","Bedsheets","Rinse+dry","Dry only","Wash only","Aqua store"
      +                          };
  7827     1572  160A  118A  252D  160A  118A  	fcall	_init_clcd
  7828     1577                     l3324:
  7829                           
  7830                           ;main.c: 27: unsigned int rinse_time,wash_time ,spin_time;
  7831     1577  1683               	bsf	3,5	;RP0=1, select bank1
  7832     1578  1303               	bcf	3,6	;RP1=0, select bank1
  7833     1579  1107               	bcf	7,2	;volatile
  7834     157A                     l3326:
  7835                           
  7836                           ;main.c: 29: 
  7837     157A  1087               	bcf	7,1	;volatile
  7838     157B                     l3328:
  7839                           
  7840                           ;main.c: 30: void main(void) {
  7841     157B  1283               	bcf	3,5	;RP0=0, select bank0
  7842     157C  1303               	bcf	3,6	;RP1=0, select bank0
  7843     157D  1087               	bcf	7,1	;volatile
  7844                           
  7845                           ;main.c: 33: 
  7846     157E  120A  158A  2001  160A  118A  	fcall	_init_timer2
  7847     1583                     l3330:
  7848                           
  7849                           ;main.c: 34: 
  7850     1583  170B               	bsf	11,6	;volatile
  7851     1584                     l3332:
  7852                           
  7853                           ;main.c: 35: 
  7854     1584  178B               	bsf	11,7	;volatile
  7855     1585                     l47:
  7856     1585  0008               	return
  7857     1586                     __end_of_init_config:
  7858                           
  7859                           	psect	text22
  7860     0801                     __ptext22:	
  7861 ;; *************** function _init_timer2 *****************
  7862 ;; Defined at:
  7863 ;;		line 4 in file "timers.c"
  7864 ;; Parameters:    Size  Location     Type
  7865 ;;		None
  7866 ;; Auto vars:     Size  Location     Type
  7867 ;;		None
  7868 ;; Return value:  Size  Location     Type
  7869 ;;                  1    wreg      void 
  7870 ;; Registers used:
  7871 ;;		wreg
  7872 ;; Tracked objects:
  7873 ;;		On entry : 0/0
  7874 ;;		On exit  : 0/0
  7875 ;;		Unchanged: 0/0
  7876 ;; Data sizes:     COMMON   BANK0   BANK1   BANK3   BANK2
  7877 ;;      Params:         0       0       0       0       0
  7878 ;;      Locals:         0       0       0       0       0
  7879 ;;      Temps:          0       0       0       0       0
  7880 ;;      Totals:         0       0       0       0       0
  7881 ;;Total ram usage:        0 bytes
  7882 ;; Hardware stack levels used: 1
  7883 ;; Hardware stack levels required when called: 1
  7884 ;; This function calls:
  7885 ;;		Nothing
  7886 ;; This function is called by:
  7887 ;;		_init_config
  7888 ;; This function uses a non-reentrant model
  7889 ;;
  7890                           
  7891     0801                     _init_timer2:	
  7892                           ;psect for function _init_timer2
  7893                           
  7894     0801                     l2234:	
  7895                           ;incstack = 0
  7896                           ; Regs used in _init_timer2: [wreg]
  7897                           
  7898                           
  7899                           ;timers.c: 8:     PR2 = 250;
  7900     0801  30FA               	movlw	250
  7901     0802  1683               	bsf	3,5	;RP0=1, select bank1
  7902     0803  1303               	bcf	3,6	;RP1=0, select bank1
  7903     0804  0092               	movwf	18	;volatile
  7904     0805                     l2236:
  7905                           
  7906                           ;timers.c: 11:     TMR2IE = 1;
  7907     0805  148C               	bsf	12,1	;volatile
  7908     0806                     l2238:
  7909                           
  7910                           ;timers.c: 14:     TMR2ON = 0;
  7911     0806  1283               	bcf	3,5	;RP0=0, select bank0
  7912     0807  1303               	bcf	3,6	;RP1=0, select bank0
  7913     0808  1112               	bcf	18,2	;volatile
  7914     0809                     l304:
  7915     0809  0008               	return
  7916     080A                     __end_of_init_timer2:
  7917                           
  7918                           	psect	text23
  7919     1527                     __ptext23:	
  7920 ;; *************** function _init_digital_keypad *****************
  7921 ;; Defined at:
  7922 ;;		line 4 in file "digital_keypad.c"
  7923 ;; Parameters:    Size  Location     Type
  7924 ;;		None
  7925 ;; Auto vars:     Size  Location     Type
  7926 ;;		None
  7927 ;; Return value:  Size  Location     Type
  7928 ;;                  1    wreg      void 
  7929 ;; Registers used:
  7930 ;;		wreg, status,2
  7931 ;; Tracked objects:
  7932 ;;		On entry : 0/0
  7933 ;;		On exit  : 0/0
  7934 ;;		Unchanged: 0/0
  7935 ;; Data sizes:     COMMON   BANK0   BANK1   BANK3   BANK2
  7936 ;;      Params:         0       0       0       0       0
  7937 ;;      Locals:         0       0       0       0       0
  7938 ;;      Temps:          0       0       0       0       0
  7939 ;;      Totals:         0       0       0       0       0
  7940 ;;Total ram usage:        0 bytes
  7941 ;; Hardware stack levels used: 1
  7942 ;; Hardware stack levels required when called: 1
  7943 ;; This function calls:
  7944 ;;		Nothing
  7945 ;; This function is called by:
  7946 ;;		_init_config
  7947 ;; This function uses a non-reentrant model
  7948 ;;
  7949                           
  7950     1527                     _init_digital_keypad:	
  7951                           ;psect for function _init_digital_keypad
  7952                           
  7953     1527                     l2224:	
  7954                           ;incstack = 0
  7955                           ; Regs used in _init_digital_keypad: [wreg+status,2]
  7956                           
  7957                           
  7958                           ;digital_keypad.c: 7:     TRISB = TRISB | 0x3F;
  7959     1527  1683               	bsf	3,5	;RP0=1, select bank1
  7960     1528  1303               	bcf	3,6	;RP1=0, select bank1
  7961     1529  0806               	movf	6,w	;volatile
  7962     152A  383F               	iorlw	63
  7963     152B  0086               	movwf	6	;volatile
  7964     152C                     l258:
  7965     152C  0008               	return
  7966     152D                     __end_of_init_digital_keypad:
  7967                           
  7968                           	psect	text24
  7969     152D                     __ptext24:	
  7970 ;; *************** function _init_clcd *****************
  7971 ;; Defined at:
  7972 ;;		line 36 in file "clcd.c"
  7973 ;; Parameters:    Size  Location     Type
  7974 ;;		None
  7975 ;; Auto vars:     Size  Location     Type
  7976 ;;		None
  7977 ;; Return value:  Size  Location     Type
  7978 ;;                  1    wreg      void 
  7979 ;; Registers used:
  7980 ;;		wreg, status,2, status,0, pclath, cstack
  7981 ;; Tracked objects:
  7982 ;;		On entry : 0/0
  7983 ;;		On exit  : 0/0
  7984 ;;		Unchanged: 0/0
  7985 ;; Data sizes:     COMMON   BANK0   BANK1   BANK3   BANK2
  7986 ;;      Params:         0       0       0       0       0
  7987 ;;      Locals:         0       0       0       0       0
  7988 ;;      Temps:          0       0       0       0       0
  7989 ;;      Totals:         0       0       0       0       0
  7990 ;;Total ram usage:        0 bytes
  7991 ;; Hardware stack levels used: 1
  7992 ;; Hardware stack levels required when called: 3
  7993 ;; This function calls:
  7994 ;;		_init_display_controller
  7995 ;; This function is called by:
  7996 ;;		_init_config
  7997 ;; This function uses a non-reentrant model
  7998 ;;
  7999                           
  8000     152D                     _init_clcd:	
  8001                           ;psect for function _init_clcd
  8002                           
  8003     152D                     l3146:	
  8004                           ;incstack = 0
  8005                           ; Regs used in _init_clcd: [wreg+status,2+status,0+pclath+cstack]
  8006                           
  8007                           
  8008                           ;clcd.c: 39:     TRISD = 0x00;
  8009     152D  1683               	bsf	3,5	;RP0=1, select bank1
  8010     152E  1303               	bcf	3,6	;RP1=0, select bank1
  8011     152F  0188               	clrf	8	;volatile
  8012     1530                     l3148:
  8013                           
  8014                           ;clcd.c: 42:     TRISE2 = 0;
  8015     1530  1109               	bcf	9,2	;volatile
  8016     1531                     l3150:
  8017                           
  8018                           ;clcd.c: 43:     TRISE1 = 0;
  8019     1531  1089               	bcf	9,1	;volatile
  8020     1532                     l3152:
  8021                           
  8022                           ;clcd.c: 45:     init_display_controller();
  8023     1532  160A  118A  2644  160A  118A  	fcall	_init_display_controller
  8024     1537                     l239:
  8025     1537  0008               	return
  8026     1538                     __end_of_init_clcd:
  8027                           
  8028                           	psect	text25
  8029     1644                     __ptext25:	
  8030 ;; *************** function _init_display_controller *****************
  8031 ;; Defined at:
  8032 ;;		line 16 in file "clcd.c"
  8033 ;; Parameters:    Size  Location     Type
  8034 ;;		None
  8035 ;; Auto vars:     Size  Location     Type
  8036 ;;		None
  8037 ;; Return value:  Size  Location     Type
  8038 ;;                  1    wreg      void 
  8039 ;; Registers used:
  8040 ;;		wreg, status,2, status,0, pclath, cstack
  8041 ;; Tracked objects:
  8042 ;;		On entry : 0/0
  8043 ;;		On exit  : 0/0
  8044 ;;		Unchanged: 0/0
  8045 ;; Data sizes:     COMMON   BANK0   BANK1   BANK3   BANK2
  8046 ;;      Params:         0       0       0       0       0
  8047 ;;      Locals:         0       0       0       0       0
  8048 ;;      Temps:          2       0       0       0       0
  8049 ;;      Totals:         2       0       0       0       0
  8050 ;;Total ram usage:        2 bytes
  8051 ;; Hardware stack levels used: 1
  8052 ;; Hardware stack levels required when called: 2
  8053 ;; This function calls:
  8054 ;;		_clcd_write
  8055 ;; This function is called by:
  8056 ;;		_init_clcd
  8057 ;; This function uses a non-reentrant model
  8058 ;;
  8059                           
  8060     1644                     _init_display_controller:	
  8061                           ;psect for function _init_display_controller
  8062                           
  8063     1644                     l3112:	
  8064                           ;incstack = 0
  8065                           ; Regs used in _init_display_controller: [wreg+status,2+status,0+pclath+cstack]
  8066                           
  8067                           
  8068                           ;clcd.c: 19:     _delay((unsigned long)((30)*(20000000/4000.0)));
  8069     1644  30C3               	movlw	195
  8070     1645  00F7               	movwf	??_init_display_controller+1
  8071     1646  30CD               	movlw	205
  8072     1647  00F6               	movwf	??_init_display_controller
  8073     1648                     u4757:
  8074     1648  0BF6               	decfsz	??_init_display_controller,f
  8075     1649  2E48               	goto	u4757
  8076     164A  0BF7               	decfsz	??_init_display_controller+1,f
  8077     164B  2E48               	goto	u4757
  8078     164C                     l3114:
  8079                           
  8080                           ;clcd.c: 22:     clcd_write(0x33, 0);
  8081     164C  01F2               	clrf	clcd_write@mode
  8082     164D  3033               	movlw	51
  8083     164E  160A  118A  2586  160A  118A  	fcall	_clcd_write
  8084     1653                     l3116:
  8085                           
  8086                           ;clcd.c: 23:     _delay((unsigned long)((4100)*(20000000/4000000.0)));
  8087     1653  301B               	movlw	27
  8088     1654  00F7               	movwf	??_init_display_controller+1
  8089     1655  309E               	movlw	158
  8090     1656  00F6               	movwf	??_init_display_controller
  8091     1657                     u4767:
  8092     1657  0BF6               	decfsz	??_init_display_controller,f
  8093     1658  2E57               	goto	u4767
  8094     1659  0BF7               	decfsz	??_init_display_controller+1,f
  8095     165A  2E57               	goto	u4767
  8096     165B  0000               	nop
  8097                           
  8098                           ;clcd.c: 24:     clcd_write(0x33, 0);
  8099     165C  01F2               	clrf	clcd_write@mode
  8100     165D  3033               	movlw	51
  8101     165E  160A  118A  2586  160A  118A  	fcall	_clcd_write
  8102     1663                     l3118:
  8103                           
  8104                           ;clcd.c: 25:      _delay((unsigned long)((100)*(20000000/4000000.0)));
  8105     1663  30A6               	movlw	166
  8106     1664  00F6               	movwf	??_init_display_controller
  8107     1665                     u4777:
  8108     1665  0BF6               	decfsz	??_init_display_controller,f
  8109     1666  2E65               	goto	u4777
  8110     1667  0000               	nop
  8111     1668                     l3120:
  8112                           
  8113                           ;clcd.c: 26:     clcd_write(0x33, 0);
  8114     1668  01F2               	clrf	clcd_write@mode
  8115     1669  3033               	movlw	51
  8116     166A  160A  118A  2586  160A  118A  	fcall	_clcd_write
  8117     166F                     l3122:
  8118                           
  8119                           ;clcd.c: 27:     _delay((unsigned long)((1)*(20000000/4000000.0)));
  8120     166F  2E70               	nop2	;2 cycle nop
  8121     1670  2E71               	nop2	;2 cycle nop
  8122     1671  0000               	nop
  8123     1672                     l3124:
  8124                           
  8125                           ;clcd.c: 28:     clcd_write(0x30, 0);
  8126     1672  01F2               	clrf	clcd_write@mode
  8127     1673  3030               	movlw	48
  8128     1674  160A  118A  2586  160A  118A  	fcall	_clcd_write
  8129     1679                     l3126:
  8130                           
  8131                           ;clcd.c: 29:     _delay((unsigned long)((100)*(20000000/4000000.0)));
  8132     1679  30A6               	movlw	166
  8133     167A  00F6               	movwf	??_init_display_controller
  8134     167B                     u4787:
  8135     167B  0BF6               	decfsz	??_init_display_controller,f
  8136     167C  2E7B               	goto	u4787
  8137     167D  0000               	nop
  8138                           
  8139                           ;clcd.c: 30:     clcd_write(0x01, 0);
  8140     167E  01F2               	clrf	clcd_write@mode
  8141     167F  3001               	movlw	1
  8142     1680  160A  118A  2586  160A  118A  	fcall	_clcd_write
  8143     1685                     l3128:
  8144                           
  8145                           ;clcd.c: 31:     _delay((unsigned long)((100)*(20000000/4000000.0)));
  8146     1685  30A6               	movlw	166
  8147     1686  00F6               	movwf	??_init_display_controller
  8148     1687                     u4797:
  8149     1687  0BF6               	decfsz	??_init_display_controller,f
  8150     1688  2E87               	goto	u4797
  8151     1689  0000               	nop
  8152     168A                     l3130:
  8153                           
  8154                           ;clcd.c: 32:     clcd_write(0x0C, 0);
  8155     168A  01F2               	clrf	clcd_write@mode
  8156     168B  300C               	movlw	12
  8157     168C  160A  118A  2586  160A  118A  	fcall	_clcd_write
  8158                           
  8159                           ;clcd.c: 33:     _delay((unsigned long)((100)*(20000000/4000000.0)));
  8160     1691  30A6               	movlw	166
  8161     1692  00F6               	movwf	??_init_display_controller
  8162     1693                     u4807:
  8163     1693  0BF6               	decfsz	??_init_display_controller,f
  8164     1694  2E93               	goto	u4807
  8165     1695  0000               	nop
  8166     1696                     l236:
  8167     1696  0008               	return
  8168     1697                     __end_of_init_display_controller:
  8169                           
  8170                           	psect	text26
  8171     1586                     __ptext26:	
  8172 ;; *************** function _clcd_write *****************
  8173 ;; Defined at:
  8174 ;;		line 4 in file "clcd.c"
  8175 ;; Parameters:    Size  Location     Type
  8176 ;;  byte            1    wreg     unsigned char 
  8177 ;;  mode            1    2[COMMON] unsigned char 
  8178 ;; Auto vars:     Size  Location     Type
  8179 ;;  byte            1    5[COMMON] unsigned char 
  8180 ;; Return value:  Size  Location     Type
  8181 ;;                  1    wreg      void 
  8182 ;; Registers used:
  8183 ;;		wreg
  8184 ;; Tracked objects:
  8185 ;;		On entry : 0/0
  8186 ;;		On exit  : 0/0
  8187 ;;		Unchanged: 0/0
  8188 ;; Data sizes:     COMMON   BANK0   BANK1   BANK3   BANK2
  8189 ;;      Params:         1       0       0       0       0
  8190 ;;      Locals:         1       0       0       0       0
  8191 ;;      Temps:          2       0       0       0       0
  8192 ;;      Totals:         4       0       0       0       0
  8193 ;;Total ram usage:        4 bytes
  8194 ;; Hardware stack levels used: 1
  8195 ;; Hardware stack levels required when called: 1
  8196 ;; This function calls:
  8197 ;;		Nothing
  8198 ;; This function is called by:
  8199 ;;		_init_display_controller
  8200 ;;		_clcd_putch
  8201 ;;		_clcd_print
  8202 ;;		_clear_screen
  8203 ;; This function uses a non-reentrant model
  8204 ;;
  8205                           
  8206     1586                     _clcd_write:	
  8207                           ;psect for function _clcd_write
  8208                           
  8209                           
  8210                           ;incstack = 0
  8211                           ; Regs used in _clcd_write: [wreg]
  8212                           ;clcd_write@byte stored from wreg
  8213     1586  00F5               	movwf	clcd_write@byte
  8214     1587                     l3092:
  8215                           
  8216                           ;clcd.c: 4: static void clcd_write(unsigned char byte, unsigned char mode);clcd.c: 5: {;
      +                          clcd.c: 6:     RE2 = (__bit)mode;
  8217     1587  1872               	btfsc	clcd_write@mode,0
  8218     1588  2D8A               	goto	u3911
  8219     1589  2D8E               	goto	u3910
  8220     158A                     u3911:
  8221     158A  1283               	bcf	3,5	;RP0=0, select bank0
  8222     158B  1303               	bcf	3,6	;RP1=0, select bank0
  8223     158C  1509               	bsf	9,2	;volatile
  8224     158D  2D91               	goto	u3924
  8225     158E                     u3910:
  8226     158E  1283               	bcf	3,5	;RP0=0, select bank0
  8227     158F  1303               	bcf	3,6	;RP1=0, select bank0
  8228     1590  1109               	bcf	9,2	;volatile
  8229     1591                     u3924:
  8230     1591                     l3094:
  8231                           
  8232                           ;clcd.c: 7:     PORTD = byte;
  8233     1591  0875               	movf	clcd_write@byte,w
  8234     1592  0088               	movwf	8	;volatile
  8235     1593                     l3096:
  8236                           
  8237                           ;clcd.c: 9:     RE1 = 1;
  8238     1593  1489               	bsf	9,1	;volatile
  8239                           
  8240                           ;clcd.c: 10:     _delay((unsigned long)((100)*(20000000/4000000.0)));
  8241     1594  30A6               	movlw	166
  8242     1595  00F3               	movwf	??_clcd_write
  8243     1596                     u4817:
  8244     1596  0BF3               	decfsz	??_clcd_write,f
  8245     1597  2D96               	goto	u4817
  8246     1598  0000               	nop
  8247     1599                     l3098:
  8248                           
  8249                           ;clcd.c: 11:     RE1 = 0;
  8250     1599  1283               	bcf	3,5	;RP0=0, select bank0
  8251     159A  1303               	bcf	3,6	;RP1=0, select bank0
  8252     159B  1089               	bcf	9,1	;volatile
  8253                           
  8254                           ;clcd.c: 13:     _delay((unsigned long)((4100)*(20000000/4000000.0)));
  8255     159C  301B               	movlw	27
  8256     159D  00F4               	movwf	??_clcd_write+1
  8257     159E  309E               	movlw	158
  8258     159F  00F3               	movwf	??_clcd_write
  8259     15A0                     u4827:
  8260     15A0  0BF3               	decfsz	??_clcd_write,f
  8261     15A1  2DA0               	goto	u4827
  8262     15A2  0BF4               	decfsz	??_clcd_write+1,f
  8263     15A3  2DA0               	goto	u4827
  8264     15A4  0000               	nop
  8265     15A5                     l233:
  8266     15A5  0008               	return
  8267     15A6                     __end_of_clcd_write:
  8268                           
  8269                           	psect	text27
  8270     080A                     __ptext27:	
  8271 ;; *************** function _isr *****************
  8272 ;; Defined at:
  8273 ;;		line 6 in file "isr.c"
  8274 ;; Parameters:    Size  Location     Type
  8275 ;;		None
  8276 ;; Auto vars:     Size  Location     Type
  8277 ;;		None
  8278 ;; Return value:  Size  Location     Type
  8279 ;;                  1    wreg      void 
  8280 ;; Registers used:
  8281 ;;		wreg, status,2, status,0
  8282 ;; Tracked objects:
  8283 ;;		On entry : 0/0
  8284 ;;		On exit  : 0/0
  8285 ;;		Unchanged: 0/0
  8286 ;; Data sizes:     COMMON   BANK0   BANK1   BANK3   BANK2
  8287 ;;      Params:         0       0       0       0       0
  8288 ;;      Locals:         0       0       0       0       0
  8289 ;;      Temps:          2       0       0       0       0
  8290 ;;      Totals:         2       0       0       0       0
  8291 ;;Total ram usage:        2 bytes
  8292 ;; Hardware stack levels used: 1
  8293 ;; This function calls:
  8294 ;;		Nothing
  8295 ;; This function is called by:
  8296 ;;		Interrupt level 1
  8297 ;; This function uses a non-reentrant model
  8298 ;;
  8299                           
  8300     080A                     _isr:	
  8301                           ;psect for function _isr
  8302                           
  8303     080A                     i1l3072:
  8304                           
  8305                           ;isr.c: 10:     static unsigned int count = 0;;isr.c: 12:     if (TMR2IF == 1)
  8306     080A  1283               	bcf	3,5	;RP0=0, select bank0
  8307     080B  1303               	bcf	3,6	;RP1=0, select bank0
  8308     080C  1C8C               	btfss	12,1	;volatile
  8309     080D  280F               	goto	u386_21
  8310     080E  2810               	goto	u386_20
  8311     080F                     u386_21:
  8312     080F  283D               	goto	i1l295
  8313     0810                     u386_20:
  8314     0810                     i1l3074:
  8315                           
  8316                           ;isr.c: 13:     {;isr.c: 14:         if (++count == 20000)
  8317     0810  3001               	movlw	1
  8318     0811  1683               	bsf	3,5	;RP0=1, select bank1
  8319     0812  1303               	bcf	3,6	;RP1=0, select bank1
  8320     0813  07C2               	addwf	isr@count^(0+128),f
  8321     0814  1803               	skipnc
  8322     0815  0AC3               	incf	(isr@count+1)^(0+128),f
  8323     0816  3000               	movlw	0
  8324     0817  07C3               	addwf	(isr@count+1)^(0+128),f
  8325     0818  3020               	movlw	32
  8326     0819  0642               	xorwf	isr@count^(0+128),w
  8327     081A  304E               	movlw	78
  8328     081B  1903               	skipnz
  8329     081C  0643               	xorwf	(isr@count+1)^(0+128),w
  8330     081D  1D03               	btfss	3,2
  8331     081E  2820               	goto	u387_21
  8332     081F  2821               	goto	u387_20
  8333     0820                     u387_21:
  8334     0820  283B               	goto	i1l3090
  8335     0821                     u387_20:
  8336     0821                     i1l3076:
  8337                           
  8338                           ;isr.c: 15:         {;isr.c: 16:             count = 0;
  8339     0821  01C2               	clrf	isr@count^(0+128)
  8340     0822  01C3               	clrf	(isr@count+1)^(0+128)
  8341     0823                     i1l3078:
  8342                           
  8343                           ;isr.c: 17:             if(sec>0)
  8344     0823  1283               	bcf	3,5	;RP0=0, select bank0
  8345     0824  1303               	bcf	3,6	;RP1=0, select bank0
  8346     0825  086B               	movf	_sec,w
  8347     0826  1903               	btfsc	3,2
  8348     0827  2829               	goto	u388_21
  8349     0828  282A               	goto	u388_20
  8350     0829                     u388_21:
  8351     0829  282D               	goto	i1l3082
  8352     082A                     u388_20:
  8353     082A                     i1l3080:
  8354                           
  8355                           ;isr.c: 18:             {;isr.c: 19:                 sec--;
  8356     082A  3001               	movlw	1
  8357     082B  02EB               	subwf	_sec,f
  8358                           
  8359                           ;isr.c: 20:             }
  8360     082C  283B               	goto	i1l3090
  8361     082D                     i1l3082:
  8362     082D  086B               	movf	_sec,w
  8363     082E  1D03               	btfss	3,2
  8364     082F  2831               	goto	u389_21
  8365     0830  2832               	goto	u389_20
  8366     0831                     u389_21:
  8367     0831  283B               	goto	i1l3090
  8368     0832                     u389_20:
  8369     0832                     i1l3084:
  8370     0832  086C               	movf	_min,w
  8371     0833  1903               	btfsc	3,2
  8372     0834  2836               	goto	u390_21
  8373     0835  2837               	goto	u390_20
  8374     0836                     u390_21:
  8375     0836  283B               	goto	i1l3090
  8376     0837                     u390_20:
  8377     0837                     i1l3086:
  8378                           
  8379                           ;isr.c: 22:             {;isr.c: 23:                 min--;
  8380     0837  3001               	movlw	1
  8381     0838  02EC               	subwf	_min,f
  8382     0839                     i1l3088:
  8383                           
  8384                           ;isr.c: 24:                 sec=59;
  8385     0839  303B               	movlw	59
  8386     083A  00EB               	movwf	_sec
  8387     083B                     i1l3090:
  8388                           
  8389                           ;isr.c: 30:         TMR2IF = 0;
  8390     083B  1283               	bcf	3,5	;RP0=0, select bank0
  8391     083C  108C               	bcf	12,1	;volatile
  8392     083D                     i1l295:
  8393     083D  0871               	movf	??_isr+1,w
  8394     083E  008A               	movwf	10
  8395     083F  0E70               	swapf	??_isr,w
  8396     0840  0083               	movwf	3
  8397     0841  0EFE               	swapf	btemp,f
  8398     0842  0E7E               	swapf	btemp,w
  8399     0843  0009               	retfie
  8400     0844                     __end_of_isr:
  8401     007E                     btemp	set	126	;btemp
  8402     007E                     wtemp0	set	126
  8403                           
  8404                           	psect	intentry
  8405     0004                     __pintentry:	
  8406                           ;incstack = 0
  8407                           ; Regs used in _isr: [wreg+status,2+status,0]
  8408                           
  8409     0004                     interrupt_function:
  8410     007E                     saved_w	set	btemp
  8411     0004  00FE               	movwf	btemp
  8412     0005  0E03               	swapf	3,w
  8413     0006  00F0               	movwf	??_isr
  8414     0007  080A               	movf	10,w
  8415     0008  00F1               	movwf	??_isr+1
  8416     0009  120A  158A  280A   	ljmp	_isr
  8417                           
  8418                           	psect	config
  8419                           
  8420                           ;Config register CONFIG @ 0x2007
  8421                           ;	Oscillator Selection bits
  8422                           ;	FOSC = 0x3, unprogrammed default
  8423                           ;	Watchdog Timer Enable bit
  8424                           ;	WDTE = OFF, WDT disabled
  8425                           ;	Power-up Timer Enable bit
  8426                           ;	PWRTE = 0x1, unprogrammed default
  8427                           ;	Brown-out Reset Enable bit
  8428                           ;	BOREN = 0x1, unprogrammed default
  8429                           ;	Low-Voltage (Single-Supply) In-Circuit Serial Programming Enable bit
  8430                           ;	LVP = 0x1, unprogrammed default
  8431                           ;	Data EEPROM Memory Code Protection bit
  8432                           ;	CPD = 0x1, unprogrammed default
  8433                           ;	Flash Program Memory Write Enable bits
  8434                           ;	WRT = 0x3, unprogrammed default
  8435                           ;	In-Circuit Debugger Mode bit
  8436                           ;	DEBUG = 0x1, unprogrammed default
  8437                           ;	Flash Program Memory Code Protection bit
  8438                           ;	CP = 0x1, unprogrammed default
  8439     2007                     	org	8199
  8440     2007  3FFB               	dw	16379

Data Sizes:
    Strings     379
    Constant    0
    Data        37
    BSS         18
    Persistent  0
    Stack       0

Auto Spaces:
    Space          Size  Autos    Used
    COMMON           14     10      12
    BANK0            80     63      80
    BANK1            80      0      36
    BANK3            96      0       0
    BANK2            96      0       0

Pointer List with Targets:

    clcd_print@str	PTR const unsigned char  size(2) Largest target is 17
		 -> STR_1(CODE[6]), STR_10(CODE[9]), STR_11(CODE[10]), STR_12(CODE[11]), 
		 -> STR_13(CODE[5]), STR_14(CODE[4]), STR_15(CODE[7]), STR_16(CODE[5]), 
		 -> STR_17(CODE[4]), STR_18(CODE[14]), STR_19(CODE[10]), STR_2(CODE[6]), 
		 -> STR_20(CODE[16]), STR_21(CODE[13]), STR_22(CODE[11]), STR_23(CODE[10]), 
		 -> STR_24(CODE[12]), STR_25(CODE[16]), STR_26(CODE[16]), STR_27(CODE[13]), 
		 -> STR_28(CODE[6]), STR_29(CODE[8]), STR_3(CODE[10]), STR_30(CODE[8]), 
		 -> STR_31(CODE[11]), STR_32(CODE[7]), STR_33(CODE[17]), STR_34(CODE[6]), 
		 -> STR_35(CODE[6]), STR_36(CODE[6]), STR_37(CODE[6]), STR_38(CODE[6]), 
		 -> STR_39(CODE[6]), STR_4(CODE[7]), STR_40(CODE[6]), STR_41(CODE[15]), 
		 -> STR_42(CODE[15]), STR_43(CODE[12]), STR_44(CODE[13]), STR_45(CODE[11]), 
		 -> STR_46(CODE[7]), STR_47(CODE[17]), STR_5(CODE[10]), STR_6(CODE[11]), 
		 -> STR_7(CODE[9]), STR_8(CODE[10]), STR_9(CODE[10]), 

    washing_prog	PTR unsigned char [12] size(2) Largest target is 11
		 -> STR_1(CODE[6]), STR_10(CODE[9]), STR_11(CODE[10]), STR_12(CODE[11]), 
		 -> STR_2(CODE[6]), STR_3(CODE[10]), STR_4(CODE[7]), STR_5(CODE[10]), 
		 -> STR_6(CODE[11]), STR_7(CODE[9]), STR_8(CODE[10]), STR_9(CODE[10]), 

    water_level_option	PTR unsigned char [5] size(2) Largest target is 7
		 -> STR_13(CODE[5]), STR_14(CODE[4]), STR_15(CODE[7]), STR_16(CODE[5]), 
		 -> STR_17(CODE[4]), 


Critical Paths under _main in COMMON

    _run_program->___awdiv
    _run_program->___xxtofl
    _door_status_check->_clcd_print
    ___fltol->___xxtofl
    ___flsub->___fladd
    ___flsub->___xxtofl
    ___flmul->___xxtofl
    ___flge->___xxtofl
    _clear_screen->_clcd_write
    _clcd_putch->___awdiv
    _clcd_print->_clcd_write
    _init_clcd->_init_display_controller
    _init_display_controller->_clcd_write

Critical Paths under _isr in COMMON

    None.

Critical Paths under _main in BANK0

    _main->_run_program
    _water_level_display->_clcd_putch
    _washing_program_display->_clcd_putch
    _run_program->___flge
    ___fltol->___flmul
    ___flsub->___flmul
    ___flmul->___xxtofl
    ___flge->___flsub
    _power_on_screen->_clcd_putch

Critical Paths under _isr in BANK0

    None.

Critical Paths under _main in BANK1

    None.

Critical Paths under _isr in BANK1

    None.

Critical Paths under _main in BANK3

    None.

Critical Paths under _isr in BANK3

    None.

Critical Paths under _main in BANK2

    None.

Critical Paths under _isr in BANK2

    None.

Call Graph Tables:

 ---------------------------------------------------------------------------------
 (Depth) Function   	        Calls       Base Space   Used Autos Params    Refs
 ---------------------------------------------------------------------------------
 (0) _main                                                 4     4      0   88274
                                             59 BANK0      4     4      0
                         _clcd_print
                       _clear_screen
                        _init_config
                    _power_on_screen
                _read_digital_keypad
                        _run_program
                           _set_time
            _washing_program_display
                _water_level_display
 ---------------------------------------------------------------------------------
 (1) _water_level_display                                  3     3      0   13425
                                              2 BANK0      3     3      0
                         _clcd_print
                         _clcd_putch
                       _clear_screen
 ---------------------------------------------------------------------------------
 (1) _washing_program_display                              3     3      0   13425
                                              2 BANK0      3     3      0
                         _clcd_print
                         _clcd_putch
                       _clear_screen
 ---------------------------------------------------------------------------------
 (1) _set_time                                             0     0      0       0
 ---------------------------------------------------------------------------------
 (1) _run_program                                          7     7      0   35416
                                             52 BANK0      7     7      0
                            ___awdiv
                            ___awmod
                             ___flge
                            ___flmul
                            ___flsub
                            ___fltol
                             ___wmul
                           ___xxtofl
                         _clcd_print
                         _clcd_putch
                       _clear_screen
                  _door_status_check
 ---------------------------------------------------------------------------------
 (2) _door_status_check                                    0     0      0   11020
                         _clcd_print
                       _clear_screen
 ---------------------------------------------------------------------------------
 (2) ___xxtofl                                            14    10      4     702
                                              2 COMMON     8     4      4
                                              0 BANK0      6     6      0
 ---------------------------------------------------------------------------------
 (2) ___wmul                                               6     2      4    1696
                                              2 COMMON     6     2      4
 ---------------------------------------------------------------------------------
 (2) ___fltol                                             10     6      4     381
                                             32 BANK0     10     6      4
                            ___flmul (ARG)
                           ___xxtofl (ARG)
 ---------------------------------------------------------------------------------
 (2) ___flsub                                              8     0      8    2333
                                             32 BANK0      8     0      8
                            ___fladd
                            ___flmul (ARG)
                           ___xxtofl (ARG)
 ---------------------------------------------------------------------------------
 (3) ___fladd                                             20    12      8    2136
                                              2 COMMON     8     0      8
                                              0 BANK0     12    12      0
 ---------------------------------------------------------------------------------
 (2) ___flmul                                             26    18      8    3713
                                              6 BANK0     26    18      8
                          __Umul8_16
                           ___xxtofl (ARG)
 ---------------------------------------------------------------------------------
 (3) __Umul8_16                                            9     7      2     980
                                              2 COMMON     4     2      2
                                              0 BANK0      5     5      0
 ---------------------------------------------------------------------------------
 (2) ___flge                                              12     4      8     334
                                             40 BANK0     12     4      8
                            ___flmul (ARG)
                            ___flsub (ARG)
                           ___xxtofl (ARG)
 ---------------------------------------------------------------------------------
 (2) ___awmod                                              6     2      4     904
                                              2 COMMON     6     2      4
 ---------------------------------------------------------------------------------
 (2) ___awdiv                                              8     4      4     908
                                              2 COMMON     8     4      4
 ---------------------------------------------------------------------------------
 (1) _read_digital_keypad                                  2     2      0      22
                                              2 COMMON     2     2      0
 ---------------------------------------------------------------------------------
 (1) _power_on_screen                                      5     5      0   13592
                                              2 BANK0      5     5      0
                         _clcd_print
                         _clcd_putch
                       _clear_screen
 ---------------------------------------------------------------------------------
 (2) _clear_screen                                         1     1      0    1052
                                              6 COMMON     1     1      0
                         _clcd_write
 ---------------------------------------------------------------------------------
 (2) _clcd_putch                                           2     1      1    2374
                                              0 BANK0      2     1      1
                            ___awdiv (ARG)
                            ___awmod (ARG)
                         _clcd_write
 ---------------------------------------------------------------------------------
 (2) _clcd_print                                           3     0      3    9968
                                              6 COMMON     3     0      3
                         _clcd_write
 ---------------------------------------------------------------------------------
 (1) _init_config                                          0     0      0    1052
                          _init_clcd
                _init_digital_keypad
                        _init_timer2
 ---------------------------------------------------------------------------------
 (2) _init_timer2                                          0     0      0       0
 ---------------------------------------------------------------------------------
 (2) _init_digital_keypad                                  0     0      0       0
 ---------------------------------------------------------------------------------
 (2) _init_clcd                                            0     0      0    1052
            _init_display_controller
 ---------------------------------------------------------------------------------
 (3) _init_display_controller                              2     2      0    1052
                                              6 COMMON     2     2      0
                         _clcd_write
 ---------------------------------------------------------------------------------
 (3) _clcd_write                                           4     3      1    1052
                                              2 COMMON     4     3      1
 ---------------------------------------------------------------------------------
 Estimated maximum stack depth 3
 ---------------------------------------------------------------------------------
 (Depth) Function   	        Calls       Base Space   Used Autos Params    Refs
 ---------------------------------------------------------------------------------
 (5) _isr                                                  2     2      0       0
                                              0 COMMON     2     2      0
 ---------------------------------------------------------------------------------
 Estimated maximum stack depth 5
 ---------------------------------------------------------------------------------

 Call Graph Graphs:

 _main (ROOT)
   _clcd_print
     _clcd_write
   _clear_screen
     _clcd_write
   _init_config
     _init_clcd
       _init_display_controller
         _clcd_write
     _init_digital_keypad
     _init_timer2
   _power_on_screen
     _clcd_print
     _clcd_putch
       ___awdiv (ARG)
       ___awmod (ARG)
       _clcd_write (ARG)
     _clear_screen
   _read_digital_keypad
   _run_program
     ___awdiv
     ___awmod
     ___flge
       ___flmul (ARG)
         __Umul8_16
         ___xxtofl (ARG)
       ___flsub (ARG)
         ___fladd
         ___flmul (ARG)
         ___xxtofl (ARG)
       ___xxtofl (ARG)
     ___flmul
     ___flsub
     ___fltol
       ___flmul (ARG)
       ___xxtofl (ARG)
     ___wmul
     ___xxtofl
     _clcd_print
     _clcd_putch
     _clear_screen
     _door_status_check
       _clcd_print
       _clear_screen
   _set_time
   _washing_program_display
     _clcd_print
     _clcd_putch
     _clear_screen
   _water_level_display
     _clcd_print
     _clcd_putch
     _clear_screen

 _isr (ROOT)

 Address spaces:
Name               Size   Autos  Total    Cost      Usage
BANK3               60      0       0       9        0.0%
BITBANK3            60      0       0       8        0.0%
SFR3                 0      0       0       4        0.0%
BITSFR3              0      0       0       4        0.0%
BANK2               60      0       0      11        0.0%
BITBANK2            60      0       0      10        0.0%
SFR2                 0      0       0       5        0.0%
BITSFR2              0      0       0       5        0.0%
BANK1               50      0      24       7       45.0%
BITBANK1            50      0       0       6        0.0%
SFR1                 0      0       0       2        0.0%
BITSFR1              0      0       0       2        0.0%
BANK0               50     3F      50       5      100.0%
BITBANK0            50      0       0       4        0.0%
SFR0                 0      0       0       1        0.0%
BITSFR0              0      0       0       1        0.0%
COMMON               E      A       C       1       85.7%
BITCOMMON            E      0       0       0        0.0%
CODE                 0      0       0       0        0.0%
DATA                 0      0      80      12        0.0%
ABS                  0      0      80       3        0.0%
NULL                 0      0       0       0        0.0%
STACK                0      0       0       2        0.0%
EEDATA             100      0       0       0        0.0%


Microchip Technology PIC Macro Assembler V2.46 build 20240104201356 
Symbol Table                                                                                   Fri Mar 29 23:01:35 2024

                              pc 0002                   clcd_print@addr 0078                               l47 1585  
                   ___awdiv@sign 0077                               fsr 0004              ___wmul@multiplicand 0074  
         water_level_display@key 0024              __Umul8_16@word_mpld 0022                              l106 17A0  
                            l213 16BB                              l117 0BB0                              l304 0809  
                            l216 16EC                              l128 0CA6                              l233 15A5  
                            l209 03D8                              l242 156C                              l251 1544  
                            l236 1696                              l239 1537                              l175 0A5E  
                            l248 1643                              l273 17FE                              l258 152C  
                            l187 0ABA                              l268 17FF                              l390 07E4  
                            l543 08AA                              l712 0F4F                              l704 0FFF  
                            l392 07FC                              l722 0F95                              l571 09AD  
                            l556 1745                              l716 0F73                              l806 1602  
                            l734 0FFF                              l591 090D                              l831 0742  
                            l576 09C6                              l568 0941                              l808 1614  
                            l584 0922                              l737 15EB                              l833 07D7  
                            l594 0922                              l691 0E03                              l844 07A1  
                            l845 07AD                              l695 0E86                              l793 068D  
                            l697 0E5F                              l787 071D                              _GIE 005F  
                            _RB0 0030                              _RC1 0039                              _RC2 003A  
                            _RE1 0049                              _RE2 004A                              _PR2 0092  
                            _min 006C                              _sec 006B                              _isr 080A  
                 clcd_putch@addr 0020                              fsr0 0004                   clcd_putch@data 0021  
                            indf 0000                     ___awmod@sign 0077     read_digital_keypad@longpress 006A  
                   ___flmul@aexp 0034                     ___flmul@bexp 0039                     ___flmul@sign 0033  
                   ___flmul@temp 003E                     ___flmul@prod 003A                      _run_program 0044  
                   ___fltol@exp1 0049                             l2010 0DA8                             l2100 0E70  
                           l2020 0DBB                             l2012 0DAD                             l2110 0E8F  
                           l2102 0E71                             l2030 0DD3                             l2022 0DC0  
                           l2014 0DB1                             l2200 0FEF                             l2120 0EB7  
                           l2104 0E7A                             l2040 0DE5                             l2032 0DD6  
                           l2024 0DC8                             l2016 0DB5                             l2202 0FF1  
                           l2130 0ECE                             l2122 0EBE                             l2114 0E98  
                           l2106 0E7E                             l2050 0DF9                             l2042 0DE6  
                           l2034 0DDC                             l2026 0DC9                             l2018 0DB6  
                           l3100 1615                             l2300 0868                             l2204 0FF5  
                           l2140 0F2D                             l2124 0EC0                             l2116 0EAF  
                           l2108 0E8A                             l2132 0ED3                             l2060 0E13  
                           l2044 0DEB                             l2052 0DFB                             l2036 0DDD  
                           l2028 0DCB                             l3102 161D                             l3110 153F  
                           l2310 088E                             l2302 086F                             l2206 0FFA  
                           l2142 0F32                             l2134 0EE9                             l2126 0EC4  
                           l2118 0EB3                             l2070 0E1D                             l2062 0E15  
                           l2054 0E09                             l2046 0DF0                             l2038 0DE1  
                           l3120 1668                             l3112 1644                             l2224 1527  
                           l3104 162D                             l2320 08A6                             l2312 088F  
                           l2304 0873                             l3200 0408                             l2208 0FFE  
                           l2160 0F7A                             l2152 0F65                             l2136 0F27  
                           l2144 0F41                             l2128 0EC5                             l2080 0E27  
                           l2072 0E1F                             l2064 0E17                             l2056 0E0D  
                           l2048 0DF8            ??_read_digital_keypad 0072                             l3130 168A  
                           l3122 166F                             l3114 164C                             l2234 0801  
                           l3106 1633                             l2314 0896                             l2306 0877  
                           l2330 16F7                             l3210 041B                             l3202 040C  
                           l2170 0F88                             l2162 0F7C                             l2154 0F6E  
                           l2146 0F57                             l2138 0F2B                             l2090 0E30  
                           l2082 0E29                             l2074 0E21                             l2066 0E19  
                           l2058 0E11                             l3124 1672                             l3116 1653  
                           l2236 0805                             l3108 1538                             l2308 0888  
                           l2316 089C                             l2340 170B                             l2332 16F9  
                           l2324 16ED                             l3140 160B                             l3132 15EF  
                           l3300 06D5                             l3220 0437                             l3212 0423  
                           l3204 0410                             l2180 0F9F                             l2172 0F8C  
                           l2164 0F81                             l2156 0F72                             l2148 0F5C  
                           l2092 0E47                             l2084 0E2B                             l2076 0E23  
                           l2068 0E1B                             l2420 15C8                             l2404 08E9  
                           l3126 1679                             l3118 1663                             l3150 1531  
                           l2238 0806                             l2318 08A1                             l2350 172A  
                           l2342 1712                             l2334 16FD                             l2326 16EE  
                           l3142 1610                             l3134 15F1                             l3310 0707  
                           l3302 06E0                             l3230 0476                             l3214 0425  
                           l3206 0411                             l2190 0FD8                             l2182 0FAD  
                           l2174 0F92                             l2158 0F77                             l2166 0F83  
                           l2094 0E63                             l2086 0E2D                             l2078 0E25  
                           l2422 15CC                             l2414 0902                             l2406 08F2  
                           l2270 07DE                             l3128 1685                             l3152 1532  
                           l2280 0844                             l2352 1731                             l2344 1716  
                           l2336 1702                             l2328 16F2                             l3136 15F8  
                           l3312 070B                             l3304 06EF                             l3240 04FD  
                           l3232 0492                             l3224 0440                             l3216 042D  
                           l3208 0416                             l2192 0FDD                             l2184 0FB1  
                           l2168 0F87                             l2096 0E6A                             l2088 0E2F  
                           l2416 0912                             l2408 08FB                             l2272 07EB  
                           l2600 079B                             l3160 16A0                             l3400 0BBB  
                           l3146 152D                             l3330 1583                             l3322 156D  
                           l3154 155B                             l2290 0854                             l2282 0845  
                           l2346 171A                             l2338 1708                             l2354 1737  
                           l2370 0961                             l2362 0923                             l3138 15FC  
                           l3314 070C                             l3306 06F9                             l3250 056A  
                           l3242 050B                             l3234 04BC                             l3226 044E  
                           l3218 0432                             l2194 0FE5                             l2186 0FCF  
                           l2178 0F9A                             l2098 0E6C                             l2418 0917  
                           l2274 07F2                             l2266 07D8                             l2610 07CE  
                           l2602 07A5                             l3170 16D1                             l3162 16A5  
                           l3410 0BD3                             l3402 0BC0                             l3092 1587  
                           l3148 1530                             l3332 1584                             l3324 1577  
                           l3340 1749                             l2292 0859                             l2284 0849  
                           l2356 173C                             l2348 1724                             l2372 0985  
                           l2364 0939                             l3308 06FB                             l3316 0711  
                           l3260 0611                             l3252 0587                             l3244 0528  
                           l3236 04D8                             l3228 045B                             l3180 03D9  
                           l2196 0FEA                             l2188 0FD3                             l2276 07F8  
                           l2268 07DA                             l2612 07CF                             l2604 07AF  
                           l3172 16DC                             l3164 16B0                             l3156 1697  
                           l3500 0301                             l3420 0C33                             l3404 0BC8  
                           l3412 0BD8                             l3094 1591                             l3326 157A  
                           l3342 1752                             l3334 1746                             l2630 17A7  
                           l2294 085D                             l2286 084E                             l2358 1741  
                           l2374 0989                             l2366 0955                             l3318 0715  
                           l3270 065D                             l3262 0639                             l3254 05B2  
                           l3246 0536                             l3238 04F4                             l3190 03EC  
                           l3182 03DE                             l2198 0FEB                             l2390 08D2  
                           l2382 08AB                             l2606 07C5                             l3174 16E7  
                           l3166 16C1                             l3158 169D                             l3510 0354  
                           l3502 0307                             l3430 004C                             l2710 09C8  
                           l3422 0C39                             l3414 0BE3                             l3406 0BCC  
                           l3096 1593                             l3328 157B                             l3360 178C  
                           l3344 1758                             l2640 17BC                             l2296 085F  
                           l2288 0850                             l2376 09C3                             l2368 095D  
                           l3280 0672                             l3272 065E                             l3264 0642  
                           l3256 05C0                             l3248 0553                             l3192 03F1  
                           l3184 03E2                             l2392 08D3                             l2384 08B6  
                           l2608 07CA                             l3176 16EA                             l3168 16C6  
                           l3520 03A0                             l3512 035E                             l3504 0313  
                           l3440 0084                             l3432 0054                             l2712 09CC  
                           l3424 0C71                             l3416 0BED                             l3408 0BD2  
                           l3600 0D81                             l3098 1599                             l3362 179B  
                           l3354 1777                             l3346 175E                             l2650 17D4  
                           l2642 17BE                             l2298 0865                             l2378 09C5  
                           l3290 0697                             l3282 0676                             l3274 0667  
                           l3266 0650                             l3258 05EB                             l3194 03F9  
                           l3186 03E6                             l2394 08DB                             l2570 0726  
                           l3178 16EB                             l3530 03CC                             l3522 03A3  
                           l3514 0379                             l3506 031E                             l3450 0105  
                           l3442 009F                             l3434 0059                             l2802 0A79  
                           l2730 09EE                             l2714 09CE                             l3370 0ACA  
                           l3426 0C77                             l3418 0BF3                             l3602 0D87  
                           l3610 0D93                             l3356 1780                             l3348 1774  
                           l2652 17D9                             l2644 17C2                             l2636 17AC  
                           l2628 17A2                             l3292 06A5                             l3284 068A  
                           l3268 0659                             l3276 066D                             l3196 03FB  
                           l3188 03E7                             l2396 08DD                             l2388 08BF  
                           l2580 0753                             l2572 072A                             l3532 03CF  
                           l3524 03A8                             l3516 0394                             l3508 0339  
                           l3460 0139                             l3452 0113                             l3444 00BA  
                           l3436 0064                             l3428 0047                             l2740 09F8  
                           l2724 09D8                             l2820 0A94                             l2708 09C7  
                           l3372 0AD2                             l3380 0AE2                             l3364 0ABE  
                           l3604 0D89                             l3612 0DA1                             l3540 0CB2  
                           l3358 1786                             l2670 17FC                             l2654 17DF  
                           l2662 17E6                             l2646 17C7                             l2638 17B7  
                           l3294 06A9                             l3278 0671                             l3198 0403  
                           l2398 08E1                             l2590 076E                             l2582 0756  
                           l2574 073A                             l3534 03D1                             l3526 03B3  
                           l3518 039B                             l3470 01E7                             l3462 0159  
                           l3454 0118                             l3446 00C4                             l3438 0079  
                           l2806 0A7E                             l2742 0A09                             l2734 09F3  
                           l2726 09E9                             l2718 09D3                             l3390 0B43  
                           l3382 0AED                             l3374 0AD6                             l3366 0AC4  
                           l3606 0D8C                             l3550 0CE8                             l3542 0CBD  
                           l2664 17EF                             l2656 17E3                             l2648 17CE  
                           l3296 06C2                             l3288 0692                             l2592 077C  
                           l2584 075A                             l2576 074A                             l2568 0721  
                           l3528 03BE                             l3480 020C                             l3464 0194  
                           l3456 0123                             l3448 00DF                             l3472 01E8  
                           l2816 0A83                             l2752 0A13                             l3392 0B7B  
                           l3384 0AF7                             l3376 0ADB                             l3368 0AC9  
                           l3560 0D0A                             l3552 0CF3                             l3544 0CC8  
                           l3536 0CA7                             l2666 17F4                             l2674 17FE  
                           l3298 06C8                             l2594 0785                             l2586 0763  
                           l3490 025D                             l3482 0212                             l3474 01EE  
                           l3466 01CF                             l3458 012E                             l2770 0A3A  
                           l2762 0A30                             l2754 0A24                             l2746 0A0E  
                           l3394 0B81                             l3386 0AFD                             l3378 0AE1  
                           l3570 0D26                             l3562 0D10                             l3554 0CF8  
                           l3546 0CD4                             l3538 0CAC                             l2668 17F6  
                           l2596 078C                             l2588 076A                             l3484 0224  
                           l3492 0269                             l3476 01F0                             l3468 01E6  
                           l2756 0A28                             l3388 0B3D                             l3396 0BB4  
                           l3580 0D4A                             l3572 0D2B                             l3564 0D15  
                           l3556 0D01                             l3548 0CDA                             l2598 0797  
                           l3494 026F                             l3486 0230                             l3478 01F2  
                           l2790 0A5E                             l2774 0A3F                             l2766 0A35  
                           l2758 0A2B                             l3398 0BBA                             l3590 0D68  
                           l3574 0D2F                             l3582 0D55                             l3566 0D1A  
                           l3558 0D03                             l3496 02E9                             l3488 0251  
                           l2784 0A48                             l3592 0D6F                             l3584 0D5D  
                           l3576 0D34                             l3568 0D20                             l3498 02F5  
                           l2786 0A59                             l2778 0A44                             l3594 0D76  
                           l3586 0D63                             l3578 0D3F                             l2796 0A63  
                           l3596 0D7C                             l3588 0D65                             l2798 0A74  
                           ?_isr 0070                             STR_1 115D                             STR_2 1163  
                           STR_3 10E6                             STR_4 113E                             STR_5 10DC  
                           STR_6 10BD                             STR_7 110E                             STR_8 10F0  
                           STR_9 1104                             u2000 0DBB                             u2001 0DBA  
                           u2010 0DC0                             u2011 0DBF                             u2100 0E51  
                           u2020 0DDC                             u2021 0DDB                             u2110 0E63  
                           u2030 0DE5                             u2111 0E62                             u2031 0DE4  
                           u2200 0EC4                             u2120 0E70                             u2040 0DEB  
                           u2201 0EC3                             u2121 0E6F                             u2041 0DEA  
                           u2050 0DF0                             u2051 0DEF                             u2300 0F77  
                           u2220 0EE9                             u2140 0E86                             u2060 0E09  
                           u2301 0F76                             u2221 0EE8                             u2141 0E85  
                           u2061 0E08                             u2310 0F81                             u2150 0E8A  
                           u2070 0E0D                             u2311 0F80                             u2231 0F00  
                           u2223 0EE5                             u2215 0EC7                             u2151 0E89  
                           u2135 0E73                             u2071 0E0C                             u4000 03EC  
                           u2400 0FD8                             u2320 0F87                             u2240 0F14  
                           u2232 0F01                             u2160 0E8F                             u2080 0E47  
                           u4001 03EB                             u2401 0FD7                             u2321 0F86  
                           u2241 0F15                             u2233 0F06                             u2161 0E8E  
                           u2081 0E46                             u4010 03F1                             u2410 0FDD  
                           u2330 0F8C                             u2250 0F32                             u2242 0F1A  
                           u2234 0F07                             u2090 0E50                             u4011 03F0  
                           u2411 0FDC                             u2331 0F8B                             u2251 0F31  
                           u2243 0F1B                             u2235 0F0C                             u2171 0EA1  
                           u2091 0E4E                             u4020 0410                             u2420 0FEA  
                           u2340 0F92                             u2260 0F57                             u2236 0F0D  
                           u2180 0EB3                             u2172 0EA8                             u2500 07DE  
                           u4101 04E6                             u4021 040F                             u2421 0FE9  
                           u2341 0F91                             u2261 0F56                             u2181 0EB2  
                           u2173 0EAF                             u2085 0E43                             u2501 07DD  
                           u4102 04ED                             u4030 0416                             u2430 0FEF  
                           u2350 0F99                             u2270 0F5C                             u2190 0EB7  
                           u3310 0769                             u4103 04F4                             u4031 0415  
                           u2431 0FEE                             u2351 0F98                             u2271 0F5B  
                           u2191 0EB6                             u3311 0768                             u2600 0888  
                           u4200 061F                             u4040 041B                             u2440 0FFE  
                           u2360 0F9F                             u3400 07CE                             u2601 0887  
                           u4121 051A                             u4041 041A                             u2441 0FFD  
                           u2361 0F9E                             u3401 07CD                             u3305 075B  
                           u3410 17A7                             u4122 0521                             u4050 0432  
                           u2370 0FB1                             u2290 0F72                             u2530 07F8  
                           u3330 078B                             u3411 17A6                             u4211 062B  
                           u4131 0545                             u4123 0528                             u4115 04F6  
                           u4051 0431                             u2371 0FB0                             u2291 0F71  
                           u2531 07F7                             u2515 07E5                             u3331 078A  
                           u3500 17FC                             u3420 17B7                             u2620 089C  
                           u2540 0849                             u4300 0697                             u4212 0632  
                           u4132 054C                             u4060 0437                             u2380 0FC0  
                           u3501 17FB                             u3421 17B6                             u2621 089B  
                           u2605 0884                             u2541 0848                             u4301 0696  
                           u4213 0639                             u4205 061A                             u4133 0553  
                           u4061 0436                             u2285 0F67                             u2525 07EC  
                           u3325 077D                             u3430 17BC                             u2630 08A1  
                           u2550 0854                             u2710 1737                             u4310 06A9  
                           u2390 0FCF                             u3350 079B                             u3270 0726  
                           u3431 17BB                             u2631 08A0                             u2615 0890  
                           u2551 0853                             u2711 1736                             u4311 06A8  
                           u4151 0579                             u4071 0484                             u2391 0FCE  
                           u3351 079A                             u3271 0725                             u3440 17C7  
                           u2560 0865                             u2720 173C                             u2640 16F2  
                           u4320 06B8                             u4240 065D                             u4152 0580  
                           u4072 048B                             u2800 08B6                             u3360 07A1  
                           u3280 072A                             u4400 0AE1                             u3441 17C6  
                           u2561 0864                             u2721 173B                             u2705 172B  
                           u2641 16F1                             u4241 065C                             u4225 063B  
                           u4161 05A4                             u4153 0587                             u4145 0555  
                           u4081 04A0                             u4073 0492                             u2385 0FBB  
                           u2801 08B5                             u3361 07A0                             u3345 0790  
                           u3281 0729                             u4401 0AE0                             u3450 17CE  
                           u2650 16FD                             u2730 0939                             u4330 06D5  
                           u4162 05AB                             u4082 04A7                             u2810 08CD  
                           u3370 07A5                             u3290 074A                             u4410 0AFD  
                           u3451 17CD                             u2651 16FC                             u2731 0938  
                           u4331 06D4                             u4235 0652                             u4171 05CF  
                           u4163 05B2                             u4091 04CA                             u4083 04AE  
                           u3371 07A4                             u3291 0749                             u4411 0AFC  
                           u3460 17D4                             u2580 0877                             u2660 1708  
                           u2740 0955                             u4340 06EF                             u4260 0671  
                           u4180 05F7                             u4172 05D6                             u4092 04D1  
                           u2820 08E1                             u3380 07BA                             u4500 0054  
                           u4420 0B43                             u3461 17D3                             u2581 0876  
                           u2661 1707                             u2741 0954                             u4341 06EE  
                           u4325 06B3                             u4261 0670                             u4173 05DD  
                           u4093 04D8                             u2821 08E0                             u4501 0053  
                           u4421 0B42                             u3470 17DF                             u2750 0961  
                           u4350 070B                             u4270 0676                             u2830 08E8  
                           u3390 07CA                             u4510 01EE                             u4430 0B81  
                           u3471 17DE                             u2575 0869                             u2751 0960  
                           u4351 070A                             u4335 06D1                             u4271 0675  
                           u4255 0660                             u4191 0603                             u2831 08E7  
                           u2815 08C8                             u3391 07C9                             u4511 01ED  
                           u4431 0B80                             u4360 175E                             u3480 17EF  
                           u2680 171A                             u4280 068A                             u4192 060A  
                           u4520 0212                             u4440 0BBA                             u4600 0CE8  
                           u4361 175D                             u3481 17EE                             u2681 1719  
                           u2761 0970                             u4345 06EB                             u4281 0689  
                           u4193 0611                             u4185 05F2                             u3385 07B5  
                           u4521 0211                             u4441 0BB9                             u4601 0CE7  
                           u4370 178C                             u3490 17F4                             u2690 1724  
                           u2770 0989                             u2762 0971                             u4290 0691  
                           u2850 08FA                             u4530 0224                             u4450 0BC8  
                           u4610 0CF3                             u4371 178B                             u3491 17F3  
                           u2595 0878                             u2691 1723                             u2675 170C  
                           u2771 0988                             u2763 0976                             u4291 0690  
                           u2851 08F9                             u4531 0223                             u4451 0BC7  
                           u4611 0CF2                             _PEIE 005E                             u2764 0977  
                           u2860 0901                             u4540 0251                             u4380 0AC4  
                           u4460 0BD2                             u4700 0D87                             u4620 0D0A  
                           u2781 0998                             u2765 097C                             u2861 0900  
                           u2845 08EA                             u4541 0250                             u4381 0AC3  
                           u4461 0BD1                             u4701 0D86                             u4621 0D09  
                           u3910 158E                             u2790 09C3                             u2782 0999  
                           u2766 097D                             u1990 0DB5                             u4550 026F  
                           u4390 0AD2                             u4470 0BF3                             u4630 0D10  
                           u3911 158A                             u2695 1720                             u2791 09C2  
                           u2783 099E                             u1991 0DB4                             u4551 026E  
                           u4535 0220                             u4391 0AD1                             u4471 0BF2  
                           u4631 0D0F                             u2784 099F                             u2880 0912  
                           u4560 02E9                             u4480 0C39                             u4640 0D15  
                           u2785 09A4                             u2881 0911                             u4561 02E8  
                           u4545 024D                             u4481 0C38                             u4641 0D14  
                           u3930 1643                             u2786 09A5                             u2890 0917  
                           u4570 0307                             u4490 0C77                             u4650 0D20  
                           u3931 1642                             u2795 09BF                             u2891 0916  
                           u2875 0904                             u4571 0306                             u4491 0C76  
                           u4651 0D1F                             u3924 1591                             u3940 15FC  
                           u4580 039B                             u4660 0D26                             u3941 15FB  
                           u4581 039A                             u4717 010D                             u4661 0D25  
                           u4590 03A0                             u4670 0D5D                             u4807 1693  
                           u4727 03C6                             u4591 039F                             u4671 0D5C  
                           u3960 1610                             u4680 0D63                             u4817 1596  
                           u4737 1794                             u3961 160F                             u4681 0D62  
                           u3970 169D                             u4690 0D7C                             u4827 15A0  
                           u4747 1541                             u3955 1603                             u3971 169C  
                           u4691 0D7B                             u3980 16C1                             u4757 1648  
                           u3981 16C0                             u3990 03E6                             u4767 1657  
                           u3991 03E5                             u4777 1665                             u4787 167B  
                           u4797 1687                             _main 0CA7                             btemp 007E  
                           start 000C                   clcd_write@byte 0075                   clcd_write@mode 0072  
        __end_of_power_on_screen 17A1        ??_washing_program_display 0022                            ??_isr 0070  
                  ___fltol@sign1 0048                  __end_of___fladd 1000                            ?_main 0070  
                __end_of___awdiv 08AB                            STR_10 1117                            STR_11 10FA  
                          STR_20 1011                            STR_12 10B2                            STR_21 1077  
                          STR_13 116E                            STR_30 1128                            STR_22 10A7  
                          STR_14 1173                            STR_23 10D2                            STR_31 109C  
                          STR_15 1137                            STR_40 1145                            STR_32 1130  
                          STR_24 1084                            STR_16 1169                            STR_25 1011  
                          STR_41 1031                            STR_33 1000                            STR_17 1177  
                          STR_34 1145                            STR_18 104F                            STR_42 1040  
                          STR_26 1021                            STR_35 1157                            STR_19 10C8  
                          STR_43 1090                            STR_27 105D                            STR_28 1151  
                          STR_36 114B                            STR_44 106A                  __end_of___awmod 1746  
                          STR_45 109C                            STR_37 1157                            STR_29 1120  
                          STR_38 114B                            STR_46 1130                            STR_47 1000  
                          STR_39 114B                  __end_of___flmul 071E                  __end_of___flsub 15EC  
                __end_of___fltol 0923                  ___awdiv@divisor 0072                            i1l295 083D  
                   ?_init_config 0070                  ___awdiv@counter 0076                            _PORTB 0006  
                          _PORTD 0008                            _TRISB 0086                            _TRISD 0088  
                   ?_init_timer2 0070             __end_of_clear_screen 1545                     main@wait_136 005D  
          run_program@total_time 0061                            pclath 000A                            status 0003  
                          wtemp0 007E                  __initialization 000F                     __end_of_main 0DA8  
                         ??_main 007A                   run_program@key 005A  __end_of_washing_program_display 0BB1  
               ___awdiv@dividend 0074                           i1l3080 082A                           i1l3072 080A  
                         i1l3082 082D                           i1l3090 083B                           i1l3074 0810  
                         i1l3084 0832                           i1l3076 0821                           i1l3086 0837  
                         i1l3078 0823                           i1l3088 0839                           u390_20 0837  
                         u390_21 0836                           u386_20 0810                           u386_21 080F  
                         u387_20 0821                           u387_21 0820                           u388_20 082A  
                         u388_21 0829                           u389_20 0832                           u389_21 0831  
                         _TMR2IE 0461                           _TMR2IF 0061                           _TMR2ON 0092  
                         _TRISC1 0439                           _TRISC2 043A                           _TRISE1 0449  
                         _TRISE2 044A                 __end_of___xxtofl 07D8      __end_of_init_digital_keypad 152D  
                         ___flge 0923          _init_display_controller 1644                        ??___fladd 0020  
                         ___wmul 07D8                        ??___awdiv 0076                 ?_power_on_screen 0070  
                      ??___awmod 0076                        ??___flmul 002E                        ??___flsub 007A  
                      ??___fltol 0044      __end_of_water_level_display 0CA7                 ___awdiv@quotient 0078  
                ___awmod@divisor 0072                  ___awmod@counter 0076      read_digital_keypad@prev_key 0069  
               __end_of_set_time 0ABB                           saved_w 007E                       ___flge@ff1 0048  
                     ___flge@ff2 004C                     ___xxtofl@arg 0022                     ___xxtofl@exp 0021  
                   ___xxtofl@val 0072          __end_of__initialization 0040                       ___fltol@f1 0040  
                 __pcstackCOMMON 0070                     __pidataBANK0 07FD                     __pidataBANK1 15A6  
                   ?_run_program 0070                       __pbssBANK0 005F                       __pbssBANK1 00C2  
                run_program@time 005F        ??_init_display_controller 0076                       _clcd_print 1615  
                     _clcd_putch 1558                       _clcd_write 1586                __end_of__Umul8_16 1615  
                     __pmaintext 0CA7                     _clear_screen 1538                          ?___flge 0048  
                        ?___wmul 0072                       __pintentry 0004      __end_of_read_digital_keypad 1800  
                      ?___xxtofl 0072                       __stringtab 117B                        ?_set_time 0070  
                        ___fladd 0DA8                          ___awdiv 0844                          ___awmod 16ED  
                        ___flmul 03D9                          ___flsub 15C8                          ___fltol 08AB  
                        __ptext1 0BB1                          __ptext2 0ABB                          __ptext3 09C7  
                        __ptext4 0044                          __ptext5 1697                          __ptext6 071E  
                        __ptext7 07D8                          __ptext8 08AB                          __ptext9 15C8  
__end_of_init_display_controller 1697                __end_of_init_clcd 1538                       ??___xxtofl 0076  
               ___awmod@dividend 0074                          main@key 005E             end_of_initialization 0040  
                 _operation_mode 006F                      ?_clcd_print 0076                      ?_clcd_putch 0020  
                    ?_clcd_write 0072         ?_washing_program_display 0070                       _reset_mode 006E  
                     ??_set_time 0072                     __pstringtext 1000                       _rinse_time 0067  
                    ___fladd@grs 002B       washing_program_display@key 0024                       _program_no 007B  
                  ___xxtofl@sign 0020                    clcd_print@str 0076                      ___flmul@grs 0035  
                 __end_of___flge 09C7                   __end_of___wmul 07FD              start_initialization 000F  
                    __end_of_isr 0844                         ??___flge 0050                         ??___wmul 0076  
                     init_fetch0 1545                        __Umul8_16 15EC                      __pdataBANK0 006D  
                    __pdataBANK1 00A0                    ??_init_config 0078                        ___fladd@a 0076  
                      ___fladd@b 0072                    ??_init_timer2 0072                        ___flmul@a 002A  
                      ___flmul@b 0026                      __pbssCOMMON 007A                        ___flsub@a 0040  
                      ___flsub@b 0044                        ___latbits 0002                    __pcstackBANK0 0020  
           power_on_screen@i_144 0026                         ?___fladd 0072                         ?___awdiv 0072  
                       ?___awmod 0072                         ?___flmul 0026                         ?___flsub 0040  
                       ?___fltol 0040                       ?__Umul8_16 0072                        __pstrings 117B  
                      _init_clcd 152D              __end_of_init_config 1586                ??_power_on_screen 0022  
            __end_of_init_timer2 080A         ?_init_display_controller 0070                interrupt_function 0004  
                 ___wmul@product 0076                     ??_clcd_print 0079                     ??_clcd_putch 007A  
                   ??_clcd_write 0073                        _wash_time 0065                        _spin_time 0063  
                    __stringbase 118D                ___wmul@multiplier 0072               __end_of_clcd_print 1644  
             __end_of_clcd_putch 156D               __end_of_clcd_write 15A6                       ?_init_clcd 0070  
            _init_digital_keypad 1527              _water_level_display 0BB1                      ??__Umul8_16 0074  
           ?_init_digital_keypad 0070               __end_of__stringtab 118D                      _init_config 156D  
           ?_water_level_display 0070                         ___xxtofl 071E                      _init_timer2 0801  
                  ??_run_program 0054                         __ptext10 0DA8                         __ptext11 03D9  
                       __ptext20 1615                         __ptext12 15EC                         __ptext21 156D  
                       __ptext13 0923                         __ptext22 0801                         __ptext14 16ED  
                       __ptext23 1527                         __ptext15 0844                         __ptext24 152D  
                       __ptext16 17A1                         __ptext25 1644                         __ptext17 1746  
                       __ptext26 1586                         __ptext18 1538                         __ptext27 080A  
                       __ptext19 1558          read_digital_keypad@mode 0073          read_digital_keypad@once 006D  
                  ?_clear_screen 0070                         _set_time 09C7            ??_init_digital_keypad 0072  
              _door_status_check 1697                         main@wait 005B               ?_door_status_check 0070  
          ??_water_level_display 0022                         isr@count 00C2              ??_door_status_check 0079  
                       init_ram0 1549                      ??_init_clcd 0078               _water_level_option 00B8  
                       intlevel1 0000              __end_of_run_program 03D9                        stringcode 1185  
                 ??_clear_screen 0076        __end_of_door_status_check 16ED              _read_digital_keypad 17A1  
              _water_level_index 007A          _washing_program_display 0ABB           __Umul8_16@multiplicand 0072  
                _power_on_screen 1746                     _washing_prog 00A0                         stringtab 117B  
                  ___fladd@signs 0028             ?_read_digital_keypad 0070                 power_on_screen@i 0025  
                   ___fladd@aexp 0029                     ___fladd@bexp 002A             __Umul8_16@multiplier 0024  
              __Umul8_16@product 0020  
